Archive member included to satisfy reference by file (symbol)

contiki-evb1000.a(autostart.o)
                              obj_evb1000/contiki-main.o (autostart_start)
contiki-evb1000.a(ctimer.o)   obj_evb1000/contiki-main.o (ctimer_init)
contiki-evb1000.a(energest.o)
                              obj_evb1000/contiki-main.o (energest_init)
contiki-evb1000.a(etimer.o)   obj_evb1000/clock.o (etimer_request_poll)
contiki-evb1000.a(process.o)  obj_evb1000/dw1000-ranging.o (process_alloc_event)
contiki-evb1000.a(rtimer.o)   obj_evb1000/contiki-main.o (rtimer_init)
contiki-evb1000.a(timer.o)    contiki-evb1000.a(etimer.o) (timer_set)
contiki-evb1000.a(serial-line.o)
                              obj_evb1000/deca_usb.o (serial_line_input_byte)
contiki-evb1000.a(leds.o)     obj_evb1000/contiki-main.o (leds_init)
contiki-evb1000.a(list.o)     contiki-evb1000.a(ctimer.o) (list_init)
contiki-evb1000.a(ringbuf.o)  contiki-evb1000.a(serial-line.o) (ringbuf_init)
contiki-evb1000.a(uip6.o)     obj_evb1000/contiki-main.o (uip_lladdr)
contiki-evb1000.a(uip-nd6.o)  contiki-evb1000.a(uip6.o) (uip_nd6_init)
contiki-evb1000.a(tcpip.o)    contiki-evb1000.a(uip6.o) (tcpip_icmp6_call)
contiki-evb1000.a(rpl-dag.o)  contiki-evb1000.a(tcpip.o) (rpl_repair_root)
contiki-evb1000.a(rpl-timers.o)
                              contiki-evb1000.a(rpl-dag.o) (rpl_reset_dio_timer)
contiki-evb1000.a(rpl-ext-header.)
                              contiki-evb1000.a(uip6.o) (rpl_verify_hbh_header)
contiki-evb1000.a(rpl.o)      contiki-evb1000.a(rpl-timers.o) (rpl_get_mode)
contiki-evb1000.a(rpl-mrhof.o)
                              contiki-evb1000.a(rpl-dag.o) (rpl_mrhof)
contiki-evb1000.a(queuebuf.o)
                              obj_evb1000/contiki-main.o (queuebuf_init)
contiki-evb1000.a(nbr-table.o)
                              contiki-evb1000.a(rpl-dag.o) (nbr_table_register)
contiki-evb1000.a(packetbuf.o)
                              contiki-evb1000.a(queuebuf.o) (packetbuf_copyto)
contiki-evb1000.a(netstack.o)
                              obj_evb1000/contiki-main.o (netstack_init)
contiki-evb1000.a(linkaddr.o)
                              contiki-evb1000.a(nbr-table.o) (linkaddr_copy)
contiki-evb1000.a(link-stats.o)
                              contiki-evb1000.a(rpl-dag.o) (link_stats_from_lladdr)
contiki-evb1000.a(nullrdc.o)  obj_evb1000/dw1000.o (nullrdc_driver)
contiki-evb1000.a(nullsec.o)  contiki-evb1000.a(netstack.o) (nullsec_driver)
contiki-evb1000.a(memb.o)     contiki-evb1000.a(queuebuf.o) (memb_init)
contiki-evb1000.a(random.o)   contiki-evb1000.a(rpl-timers.o) (random_rand)
contiki-evb1000.a(uip-icmp6.o)
                              contiki-evb1000.a(uip6.o) (uip_icmp6_input)
contiki-evb1000.a(uip-ds6.o)  contiki-evb1000.a(uip6.o) (uip_ds6_is_addr_onlink)
contiki-evb1000.a(uip-ds6-route.o)
                              contiki-evb1000.a(uip-ds6.o) (uip_ds6_route_init)
contiki-evb1000.a(uip-ds6-nbr.o)
                              contiki-evb1000.a(uip-ds6.o) (uip_ds6_neighbors_init)
contiki-evb1000.a(sicslowpan.o)
                              contiki-evb1000.a(nullsec.o) (sicslowpan_driver)
contiki-evb1000.a(uip-debug.o)
                              contiki-evb1000.a(uip-ds6-route.o) (uip_debug_ipaddr_print)
contiki-evb1000.a(rpl-icmp6.o)
                              contiki-evb1000.a(rpl-dag.o) (rpl_icmp6_update_nbr_table)
contiki-evb1000.a(rpl-nbr-policy.)
                              contiki-evb1000.a(nbr-table.o) (rpl_nbr_policy_find_removable)
contiki-evb1000.a(mac-sequence.o)
                              contiki-evb1000.a(nullrdc.o) (mac_sequence_is_duplicate)
contiki-evb1000.a(csma.o)     contiki-evb1000.a(nullrdc.o) (csma_driver)
contiki-evb1000.a(frame802154.o)
                              contiki-evb1000.a(nullrdc.o) (frame802154_parse)
contiki-evb1000.a(mac.o)      contiki-evb1000.a(nullrdc.o) (mac_call_sent_callback)
contiki-evb1000.a(framer-802154.o)
                              contiki-evb1000.a(nullrdc.o) (framer_802154)
contiki-evb1000.a(stimer.o)   contiki-evb1000.a(uip-ds6.o) (stimer_set)
/usr/lib/gcc/arm-none-eabi/6.3.1/thumb/v7-m/libgcc.a(_arm_addsubdf3.o)
                              obj_evb1000/deca_device.o (__aeabi_dsub)
/usr/lib/gcc/arm-none-eabi/6.3.1/thumb/v7-m/libgcc.a(_arm_muldivdf3.o)
                              obj_evb1000/deca_device.o (__aeabi_dmul)
/usr/lib/gcc/arm-none-eabi/6.3.1/thumb/v7-m/libgcc.a(_arm_cmpdf2.o)
                              obj_evb1000/uwb_tdoa_anchor3.o (__aeabi_dcmplt)
/usr/lib/gcc/arm-none-eabi/6.3.1/thumb/v7-m/libgcc.a(_arm_fixdfsi.o)
                              obj_evb1000/deca_device.o (__aeabi_d2iz)
/usr/lib/gcc/arm-none-eabi/6.3.1/thumb/v7-m/libgcc.a(_arm_fixunsdfsi.o)
                              obj_evb1000/uwb_tdoa_anchor3.o (__aeabi_d2uiz)
/usr/lib/gcc/arm-none-eabi/6.3.1/thumb/v7-m/libgcc.a(_arm_truncdfsf2.o)
                              obj_evb1000/dw1000-ranging.o (__aeabi_d2f)
/usr/lib/gcc/arm-none-eabi/6.3.1/thumb/v7-m/libgcc.a(_arm_addsubsf3.o)
                              obj_evb1000/deca_range_tables.o (__aeabi_i2f)
/usr/lib/gcc/arm-none-eabi/6.3.1/thumb/v7-m/libgcc.a(_arm_cmpsf2.o)
                              obj_evb1000/uwb_tdoa_anchor3.o (__aeabi_fcmplt)
/usr/lib/gcc/arm-none-eabi/6.3.1/thumb/v7-m/libgcc.a(_fixdfdi.o)
                              obj_evb1000/dw1000-ranging.o (__aeabi_d2lz)
/usr/lib/gcc/arm-none-eabi/6.3.1/thumb/v7-m/libgcc.a(_fixunsdfdi.o)
                              /usr/lib/gcc/arm-none-eabi/6.3.1/thumb/v7-m/libgcc.a(_fixdfdi.o) (__aeabi_d2ulz)
/usr/lib/gcc/arm-none-eabi/6.3.1/../../../arm-none-eabi/lib/libc.a(lib_a-atexit.o)
                              /usr/lib/gcc/arm-none-eabi/6.3.1/../../../arm-none-eabi/lib/crt0.o (atexit)
/usr/lib/gcc/arm-none-eabi/6.3.1/../../../arm-none-eabi/lib/libc.a(lib_a-exit.o)
                              /usr/lib/gcc/arm-none-eabi/6.3.1/../../../arm-none-eabi/lib/crt0.o (exit)
/usr/lib/gcc/arm-none-eabi/6.3.1/../../../arm-none-eabi/lib/libc.a(lib_a-fini.o)
                              /usr/lib/gcc/arm-none-eabi/6.3.1/../../../arm-none-eabi/lib/crt0.o (__libc_fini_array)
/usr/lib/gcc/arm-none-eabi/6.3.1/../../../arm-none-eabi/lib/libc.a(lib_a-impure.o)
                              /usr/lib/gcc/arm-none-eabi/6.3.1/../../../arm-none-eabi/lib/libc.a(lib_a-exit.o) (_global_impure_ptr)
/usr/lib/gcc/arm-none-eabi/6.3.1/../../../arm-none-eabi/lib/libc.a(lib_a-init.o)
                              /usr/lib/gcc/arm-none-eabi/6.3.1/../../../arm-none-eabi/lib/crt0.o (__libc_init_array)
/usr/lib/gcc/arm-none-eabi/6.3.1/../../../arm-none-eabi/lib/libc.a(lib_a-memcmp.o)
                              contiki-evb1000.a(uip6.o) (memcmp)
/usr/lib/gcc/arm-none-eabi/6.3.1/../../../arm-none-eabi/lib/libc.a(lib_a-memcpy-stub.o)
                              contiki-evb1000.a(uip6.o) (memcpy)
/usr/lib/gcc/arm-none-eabi/6.3.1/../../../arm-none-eabi/lib/libc.a(lib_a-memmove.o)
                              contiki-evb1000.a(uip6.o) (memmove)
/usr/lib/gcc/arm-none-eabi/6.3.1/../../../arm-none-eabi/lib/libc.a(lib_a-memset.o)
                              /usr/lib/gcc/arm-none-eabi/6.3.1/../../../arm-none-eabi/lib/crt0.o (memset)
/usr/lib/gcc/arm-none-eabi/6.3.1/../../../arm-none-eabi/lib/libc.a(lib_a-printf.o)
                              contiki-evb1000.a(rpl-dag.o) (printf)
/usr/lib/gcc/arm-none-eabi/6.3.1/../../../arm-none-eabi/lib/libc.a(lib_a-putchar.o)
                              contiki-evb1000.a(uip-debug.o) (putchar)
/usr/lib/gcc/arm-none-eabi/6.3.1/../../../arm-none-eabi/lib/libc.a(lib_a-puts.o)
                              hello-world.co (puts)
/usr/lib/gcc/arm-none-eabi/6.3.1/../../../arm-none-eabi/lib/libc.a(lib_a-rand.o)
                              obj_evb1000/uwb_tdoa_anchor3.o (srand)
/usr/lib/gcc/arm-none-eabi/6.3.1/../../../arm-none-eabi/lib/libc.a(lib_a-strlen-stub.o)
                              obj_evb1000/lcd.o (strlen)
/usr/lib/gcc/arm-none-eabi/6.3.1/../../../arm-none-eabi/lib/libc.a(lib_a-vfprintf.o)
                              /usr/lib/gcc/arm-none-eabi/6.3.1/../../../arm-none-eabi/lib/libc.a(lib_a-printf.o) (_vfprintf_r)
/usr/lib/gcc/arm-none-eabi/6.3.1/../../../arm-none-eabi/lib/libc.a(lib_a-wsetup.o)
                              /usr/lib/gcc/arm-none-eabi/6.3.1/../../../arm-none-eabi/lib/libc.a(lib_a-vfprintf.o) (__swsetup_r)
/usr/lib/gcc/arm-none-eabi/6.3.1/../../../arm-none-eabi/lib/libc.a(lib_a-__atexit.o)
                              /usr/lib/gcc/arm-none-eabi/6.3.1/../../../arm-none-eabi/lib/libc.a(lib_a-atexit.o) (__register_exitproc)
/usr/lib/gcc/arm-none-eabi/6.3.1/../../../arm-none-eabi/lib/libc.a(lib_a-__call_atexit.o)
                              /usr/lib/gcc/arm-none-eabi/6.3.1/../../../arm-none-eabi/lib/libc.a(lib_a-exit.o) (__call_exitprocs)
/usr/lib/gcc/arm-none-eabi/6.3.1/../../../arm-none-eabi/lib/libc.a(lib_a-dtoa.o)
                              /usr/lib/gcc/arm-none-eabi/6.3.1/../../../arm-none-eabi/lib/libc.a(lib_a-vfprintf.o) (_dtoa_r)
/usr/lib/gcc/arm-none-eabi/6.3.1/../../../arm-none-eabi/lib/libc.a(lib_a-fflush.o)
                              /usr/lib/gcc/arm-none-eabi/6.3.1/../../../arm-none-eabi/lib/libc.a(lib_a-vfprintf.o) (_fflush_r)
/usr/lib/gcc/arm-none-eabi/6.3.1/../../../arm-none-eabi/lib/libc.a(lib_a-findfp.o)
                              /usr/lib/gcc/arm-none-eabi/6.3.1/../../../arm-none-eabi/lib/libc.a(lib_a-puts.o) (__sinit)
/usr/lib/gcc/arm-none-eabi/6.3.1/../../../arm-none-eabi/lib/libc.a(lib_a-freer.o)
                              /usr/lib/gcc/arm-none-eabi/6.3.1/../../../arm-none-eabi/lib/libc.a(lib_a-wsetup.o) (_free_r)
/usr/lib/gcc/arm-none-eabi/6.3.1/../../../arm-none-eabi/lib/libc.a(lib_a-fvwrite.o)
                              /usr/lib/gcc/arm-none-eabi/6.3.1/../../../arm-none-eabi/lib/libc.a(lib_a-puts.o) (__sfvwrite_r)
/usr/lib/gcc/arm-none-eabi/6.3.1/../../../arm-none-eabi/lib/libc.a(lib_a-fwalk.o)
                              /usr/lib/gcc/arm-none-eabi/6.3.1/../../../arm-none-eabi/lib/libc.a(lib_a-findfp.o) (_fwalk)
/usr/lib/gcc/arm-none-eabi/6.3.1/../../../arm-none-eabi/lib/libc.a(lib_a-locale.o)
                              /usr/lib/gcc/arm-none-eabi/6.3.1/../../../arm-none-eabi/lib/libc.a(lib_a-vfprintf.o) (_localeconv_r)
/usr/lib/gcc/arm-none-eabi/6.3.1/../../../arm-none-eabi/lib/libc.a(lib_a-makebuf.o)
                              /usr/lib/gcc/arm-none-eabi/6.3.1/../../../arm-none-eabi/lib/libc.a(lib_a-wsetup.o) (__smakebuf_r)
/usr/lib/gcc/arm-none-eabi/6.3.1/../../../arm-none-eabi/lib/libc.a(lib_a-mallocr.o)
                              /usr/lib/gcc/arm-none-eabi/6.3.1/../../../arm-none-eabi/lib/libc.a(lib_a-findfp.o) (_malloc_r)
/usr/lib/gcc/arm-none-eabi/6.3.1/../../../arm-none-eabi/lib/libc.a(lib_a-memchr-stub.o)
                              /usr/lib/gcc/arm-none-eabi/6.3.1/../../../arm-none-eabi/lib/libc.a(lib_a-vfprintf.o) (memchr)
/usr/lib/gcc/arm-none-eabi/6.3.1/../../../arm-none-eabi/lib/libc.a(lib_a-mlock.o)
                              /usr/lib/gcc/arm-none-eabi/6.3.1/../../../arm-none-eabi/lib/libc.a(lib_a-freer.o) (__malloc_lock)
/usr/lib/gcc/arm-none-eabi/6.3.1/../../../arm-none-eabi/lib/libc.a(lib_a-mprec.o)
                              /usr/lib/gcc/arm-none-eabi/6.3.1/../../../arm-none-eabi/lib/libc.a(lib_a-dtoa.o) (_Balloc)
/usr/lib/gcc/arm-none-eabi/6.3.1/../../../arm-none-eabi/lib/libc.a(lib_a-putc.o)
                              /usr/lib/gcc/arm-none-eabi/6.3.1/../../../arm-none-eabi/lib/libc.a(lib_a-putchar.o) (_putc_r)
/usr/lib/gcc/arm-none-eabi/6.3.1/../../../arm-none-eabi/lib/libc.a(lib_a-reallocr.o)
                              /usr/lib/gcc/arm-none-eabi/6.3.1/../../../arm-none-eabi/lib/libc.a(lib_a-fvwrite.o) (_realloc_r)
/usr/lib/gcc/arm-none-eabi/6.3.1/../../../arm-none-eabi/lib/libc.a(lib_a-sbrkr.o)
                              /usr/lib/gcc/arm-none-eabi/6.3.1/../../../arm-none-eabi/lib/libc.a(lib_a-freer.o) (_sbrk_r)
/usr/lib/gcc/arm-none-eabi/6.3.1/../../../arm-none-eabi/lib/libc.a(lib_a-stdio.o)
                              /usr/lib/gcc/arm-none-eabi/6.3.1/../../../arm-none-eabi/lib/libc.a(lib_a-findfp.o) (__sread)
/usr/lib/gcc/arm-none-eabi/6.3.1/../../../arm-none-eabi/lib/libc.a(lib_a-strcmp.o)
                              /usr/lib/gcc/arm-none-eabi/6.3.1/../../../arm-none-eabi/lib/libc.a(lib_a-locale.o) (strcmp)
/usr/lib/gcc/arm-none-eabi/6.3.1/../../../arm-none-eabi/lib/libc.a(lib_a-vfiprintf.o)
                              /usr/lib/gcc/arm-none-eabi/6.3.1/../../../arm-none-eabi/lib/libc.a(lib_a-vfprintf.o) (__sprint_r)
/usr/lib/gcc/arm-none-eabi/6.3.1/../../../arm-none-eabi/lib/libc.a(lib_a-wbuf.o)
                              /usr/lib/gcc/arm-none-eabi/6.3.1/../../../arm-none-eabi/lib/libc.a(lib_a-putc.o) (__swbuf_r)
/usr/lib/gcc/arm-none-eabi/6.3.1/../../../arm-none-eabi/lib/libc.a(lib_a-writer.o)
                              /usr/lib/gcc/arm-none-eabi/6.3.1/../../../arm-none-eabi/lib/libc.a(lib_a-stdio.o) (_write_r)
/usr/lib/gcc/arm-none-eabi/6.3.1/../../../arm-none-eabi/lib/libc.a(lib_a-callocr.o)
                              /usr/lib/gcc/arm-none-eabi/6.3.1/../../../arm-none-eabi/lib/libc.a(lib_a-mprec.o) (_calloc_r)
/usr/lib/gcc/arm-none-eabi/6.3.1/../../../arm-none-eabi/lib/libc.a(lib_a-closer.o)
                              /usr/lib/gcc/arm-none-eabi/6.3.1/../../../arm-none-eabi/lib/libc.a(lib_a-stdio.o) (_close_r)
/usr/lib/gcc/arm-none-eabi/6.3.1/../../../arm-none-eabi/lib/libc.a(lib_a-fclose.o)
                              /usr/lib/gcc/arm-none-eabi/6.3.1/../../../arm-none-eabi/lib/libc.a(lib_a-findfp.o) (_fclose_r)
/usr/lib/gcc/arm-none-eabi/6.3.1/../../../arm-none-eabi/lib/libc.a(lib_a-fputwc.o)
                              /usr/lib/gcc/arm-none-eabi/6.3.1/../../../arm-none-eabi/lib/libc.a(lib_a-vfiprintf.o) (_fputwc_r)
/usr/lib/gcc/arm-none-eabi/6.3.1/../../../arm-none-eabi/lib/libc.a(lib_a-fstatr.o)
                              /usr/lib/gcc/arm-none-eabi/6.3.1/../../../arm-none-eabi/lib/libc.a(lib_a-makebuf.o) (_fstat_r)
/usr/lib/gcc/arm-none-eabi/6.3.1/../../../arm-none-eabi/lib/libc.a(lib_a-isattyr.o)
                              /usr/lib/gcc/arm-none-eabi/6.3.1/../../../arm-none-eabi/lib/libc.a(lib_a-makebuf.o) (_isatty_r)
/usr/lib/gcc/arm-none-eabi/6.3.1/../../../arm-none-eabi/lib/libc.a(lib_a-lseekr.o)
                              /usr/lib/gcc/arm-none-eabi/6.3.1/../../../arm-none-eabi/lib/libc.a(lib_a-stdio.o) (_lseek_r)
/usr/lib/gcc/arm-none-eabi/6.3.1/../../../arm-none-eabi/lib/libc.a(lib_a-readr.o)
                              /usr/lib/gcc/arm-none-eabi/6.3.1/../../../arm-none-eabi/lib/libc.a(lib_a-stdio.o) (_read_r)
/usr/lib/gcc/arm-none-eabi/6.3.1/../../../arm-none-eabi/lib/libc.a(lib_a-reent.o)
                              /usr/lib/gcc/arm-none-eabi/6.3.1/../../../arm-none-eabi/lib/libc.a(lib_a-sbrkr.o) (errno)
/usr/lib/gcc/arm-none-eabi/6.3.1/../../../arm-none-eabi/lib/libc.a(lib_a-wcrtomb.o)
                              /usr/lib/gcc/arm-none-eabi/6.3.1/../../../arm-none-eabi/lib/libc.a(lib_a-fputwc.o) (_wcrtomb_r)
/usr/lib/gcc/arm-none-eabi/6.3.1/../../../arm-none-eabi/lib/libc.a(lib_a-wctomb_r.o)
                              /usr/lib/gcc/arm-none-eabi/6.3.1/../../../arm-none-eabi/lib/libc.a(lib_a-wcrtomb.o) (__wctomb)
/usr/lib/gcc/arm-none-eabi/6.3.1/thumb/v7-m/libgcc.a(_udivsi3.o)
                              /usr/lib/gcc/arm-none-eabi/6.3.1/../../../arm-none-eabi/lib/libc.a(lib_a-dtoa.o) (__aeabi_uidiv)
/usr/lib/gcc/arm-none-eabi/6.3.1/thumb/v7-m/libgcc.a(_divsi3.o)
                              /usr/lib/gcc/arm-none-eabi/6.3.1/../../../arm-none-eabi/lib/libc.a(lib_a-fvwrite.o) (__aeabi_idiv)
/usr/lib/gcc/arm-none-eabi/6.3.1/thumb/v7-m/libgcc.a(_dvmd_tls.o)
                              /usr/lib/gcc/arm-none-eabi/6.3.1/thumb/v7-m/libgcc.a(_udivsi3.o) (__aeabi_idiv0)
/usr/lib/gcc/arm-none-eabi/6.3.1/thumb/v7-m/libgcc.a(_arm_unorddf2.o)
                              /usr/lib/gcc/arm-none-eabi/6.3.1/../../../arm-none-eabi/lib/libc.a(lib_a-vfprintf.o) (__aeabi_dcmpun)
/usr/lib/gcc/arm-none-eabi/6.3.1/thumb/v7-m/libgcc.a(_aeabi_uldivmod.o)
                              /usr/lib/gcc/arm-none-eabi/6.3.1/../../../arm-none-eabi/lib/libc.a(lib_a-vfprintf.o) (__aeabi_uldivmod)
/usr/lib/gcc/arm-none-eabi/6.3.1/thumb/v7-m/libgcc.a(_udivmoddi4.o)
                              /usr/lib/gcc/arm-none-eabi/6.3.1/thumb/v7-m/libgcc.a(_aeabi_uldivmod.o) (__udivmoddi4)

Allocating common symbols
Common symbol       size              file

uip_ds6_timer_ra    0x8               contiki-evb1000.a(uip-ds6.o)
ss_poll_tx_ts       0x4               obj_evb1000/dw1000-ranging.o
uip_ds6_if          0xf8              contiki-evb1000.a(uip-ds6.o)
uip_ds6_netif_addr_list_offset
                    0x1               contiki-evb1000.a(uip-ds6.o)
uip_len             0x2               contiki-evb1000.a(uip6.o)
SET_TEST_MODE       0x4               obj_evb1000/usbd_core.o
errno               0x4               /usr/lib/gcc/arm-none-eabi/6.3.1/../../../arm-none-eabi/lib/libc.a(lib_a-reent.o)
uip_ds6_addr_size   0x1               contiki-evb1000.a(uip-ds6.o)
uip_sappdata        0x4               contiki-evb1000.a(uip6.o)
packetbuf_addrs     0x10              contiki-evb1000.a(packetbuf.o)
uip_acc32           0x4               contiki-evb1000.a(uip6.o)
uip_ds6_prefix_list
                    0x60              contiki-evb1000.a(uip-ds6.o)
ds_poll_rx_ts       0x4               obj_evb1000/dw1000-ranging.o
uip_lladdr          0x8               contiki-evb1000.a(uip6.o)
uip_aligned_buf     0x514             contiki-evb1000.a(uip6.o)
uip_flags           0x1               contiki-evb1000.a(uip6.o)
periodic_timer      0x20              contiki-evb1000.a(link-stats.o)
uip_ds6_timer_periodic
                    0x10              contiki-evb1000.a(uip-ds6.o)
uip_next_hdr        0x4               contiki-evb1000.a(uip6.o)
ss_poll_rx_ts       0x4               obj_evb1000/dw1000-ranging.o
linkaddr_node_addr  0x8               contiki-evb1000.a(linkaddr.o)
default_instance    0x4               contiki-evb1000.a(rpl-dag.o)
uip_udp_conn        0x4               contiki-evb1000.a(uip6.o)
packetbuf_attrs     0x1e              contiki-evb1000.a(packetbuf.o)
usbd_cdc_OtherCfgDesc
                    0x43              obj_evb1000/usbd_cdc_core.o
instance_table      0x154             contiki-evb1000.a(rpl-dag.o)
uip_appdata         0x4               contiki-evb1000.a(uip6.o)
uip_conn            0x4               contiki-evb1000.a(uip6.o)
tcpip_event         0x1               contiki-evb1000.a(tcpip.o)
USB_Rx_Buffer       0x40              obj_evb1000/usbd_cdc_core.o
uip_conns           0x1e0             contiki-evb1000.a(uip6.o)
uip_icmp6_conns     0x8               contiki-evb1000.a(uip6.o)
ds_poll_tx_ts       0x4               obj_evb1000/dw1000-ranging.o
ss_resp_tx_ts       0x4               obj_evb1000/dw1000-ranging.o
CmdBuff             0x8               obj_evb1000/usbd_cdc_core.o
ds_resp_rx_ts       0x4               obj_evb1000/dw1000-ranging.o
uip_listenports     0x10              contiki-evb1000.a(uip6.o)
USB_OTG_dev         0x5f4             obj_evb1000/deca_usb.o
ds_final_rx_ts      0x4               obj_evb1000/dw1000-ranging.o
APP_Rx_Buffer       0x1000            obj_evb1000/usbd_cdc_core.o
serial_line_event_message
                    0x1               contiki-evb1000.a(serial-line.o)
USBD_StrDesc        0xff              obj_evb1000/usbd_desc.o
ranging_event       0x1               obj_evb1000/dw1000-ranging.o
req_process         0x4               obj_evb1000/dw1000-ranging.o
tcpip_icmp6_event   0x1               contiki-evb1000.a(tcpip.o)
ds_final_tx_ts      0x4               obj_evb1000/dw1000-ranging.o
ss_resp_rx_ts       0x4               obj_evb1000/dw1000-ranging.o
ds_resp_tx_ts       0x4               obj_evb1000/dw1000-ranging.o
uip_slen            0x2               contiki-evb1000.a(uip6.o)
uip_udp_conns       0x140             contiki-evb1000.a(uip6.o)

Discarded input sections

 .text          0x0000000000000000        0x0 /usr/lib/gcc/arm-none-eabi/6.3.1/thumb/v7-m/crti.o
 .data          0x0000000000000000        0x0 /usr/lib/gcc/arm-none-eabi/6.3.1/thumb/v7-m/crti.o
 .bss           0x0000000000000000        0x0 /usr/lib/gcc/arm-none-eabi/6.3.1/thumb/v7-m/crti.o
 .data          0x0000000000000000        0x4 /usr/lib/gcc/arm-none-eabi/6.3.1/thumb/v7-m/crtbegin.o
 .text          0x0000000000000000      0x104 /usr/lib/gcc/arm-none-eabi/6.3.1/../../../arm-none-eabi/lib/crt0.o
 .data          0x0000000000000000        0x0 /usr/lib/gcc/arm-none-eabi/6.3.1/../../../arm-none-eabi/lib/crt0.o
 .bss           0x0000000000000000        0x0 /usr/lib/gcc/arm-none-eabi/6.3.1/../../../arm-none-eabi/lib/crt0.o
 .ARM.extab     0x0000000000000000        0x0 /usr/lib/gcc/arm-none-eabi/6.3.1/../../../arm-none-eabi/lib/crt0.o
 .ARM.exidx     0x0000000000000000        0x8 /usr/lib/gcc/arm-none-eabi/6.3.1/../../../arm-none-eabi/lib/crt0.o
 .debug_line    0x0000000000000000       0x92 /usr/lib/gcc/arm-none-eabi/6.3.1/../../../arm-none-eabi/lib/crt0.o
 .debug_info    0x0000000000000000       0x92 /usr/lib/gcc/arm-none-eabi/6.3.1/../../../arm-none-eabi/lib/crt0.o
 .debug_abbrev  0x0000000000000000       0x14 /usr/lib/gcc/arm-none-eabi/6.3.1/../../../arm-none-eabi/lib/crt0.o
 .debug_aranges
                0x0000000000000000       0x20 /usr/lib/gcc/arm-none-eabi/6.3.1/../../../arm-none-eabi/lib/crt0.o
 .ARM.attributes
                0x0000000000000000       0x14 /usr/lib/gcc/arm-none-eabi/6.3.1/../../../arm-none-eabi/lib/crt0.o
 .text          0x0000000000000000       0x14 /tmp/cc6EDpDG.o
 .data          0x0000000000000000        0x0 /tmp/cc6EDpDG.o
 .bss           0x0000000000000000        0x0 /tmp/cc6EDpDG.o
 .text          0x0000000000000000        0x0 hello-world.co
 .data          0x0000000000000000        0x0 hello-world.co
 .bss           0x0000000000000000        0x0 hello-world.co
 .text          0x0000000000000000        0x0 obj_evb1000/contiki-main.o
 .data          0x0000000000000000        0x0 obj_evb1000/contiki-main.o
 .bss           0x0000000000000000        0x0 obj_evb1000/contiki-main.o
 .bss.node_id   0x0000000000000000        0x2 obj_evb1000/contiki-main.o
 .text          0x0000000000000000        0x0 obj_evb1000/board.o
 .data          0x0000000000000000        0x0 obj_evb1000/board.o
 .bss           0x0000000000000000        0x0 obj_evb1000/board.o
 .text          0x0000000000000000        0x0 obj_evb1000/leds-arch.o
 .data          0x0000000000000000        0x0 obj_evb1000/leds-arch.o
 .bss           0x0000000000000000        0x0 obj_evb1000/leds-arch.o
 .text.leds_arch_get
                0x0000000000000000        0xc obj_evb1000/leds-arch.o
 .text          0x0000000000000000        0x0 obj_evb1000/lcd.o
 .data          0x0000000000000000        0x0 obj_evb1000/lcd.o
 .bss           0x0000000000000000        0x0 obj_evb1000/lcd.o
 .text          0x0000000000000000        0x0 obj_evb1000/stm32f10x_it.o
 .data          0x0000000000000000        0x0 obj_evb1000/stm32f10x_it.o
 .bss           0x0000000000000000        0x0 obj_evb1000/stm32f10x_it.o
 .text          0x0000000000000000        0x0 obj_evb1000/syscalls.o
 .data          0x0000000000000000        0x0 obj_evb1000/syscalls.o
 .bss           0x0000000000000000        0x0 obj_evb1000/syscalls.o
 .text          0x0000000000000000        0x0 obj_evb1000/dw1000-arch.o
 .data          0x0000000000000000        0x0 obj_evb1000/dw1000-arch.o
 .bss           0x0000000000000000        0x0 obj_evb1000/dw1000-arch.o
 .text.dw1000_spi_open
                0x0000000000000000        0x4 obj_evb1000/dw1000-arch.o
 .text.dw1000_spi_close
                0x0000000000000000        0x4 obj_evb1000/dw1000-arch.o
 .text.dw1000_set_spi_bit_rate
                0x0000000000000000        0xc obj_evb1000/dw1000-arch.o
 .text          0x0000000000000000        0x0 obj_evb1000/deca_device.o
 .data          0x0000000000000000        0x0 obj_evb1000/deca_device.o
 .bss           0x0000000000000000        0x0 obj_evb1000/deca_device.o
 .text.dwt_setlocaldataptr
                0x0000000000000000       0x24 obj_evb1000/deca_device.o
 .text.dwt_otprevision
                0x0000000000000000        0xc obj_evb1000/deca_device.o
 .text.dwt_setgpiodirection
                0x0000000000000000       0x34 obj_evb1000/deca_device.o
 .text.dwt_setgpiovalue
                0x0000000000000000       0x34 obj_evb1000/deca_device.o
 .text.dwt_readcarrierintegrator
                0x0000000000000000       0x44 obj_evb1000/deca_device.o
 .text.dwt_readtxtimestamp
                0x0000000000000000       0x1c obj_evb1000/deca_device.o
 .text.dwt_readsystime
                0x0000000000000000       0x1c obj_evb1000/deca_device.o
 .text.dwt_setfinegraintxseq
                0x0000000000000000       0x3c obj_evb1000/deca_device.o
 .text.dwt_configuretxrf
                0x0000000000000000       0x40 obj_evb1000/deca_device.o
 .text.dwt_readtxtimestamphi32
                0x0000000000000000       0x2c obj_evb1000/deca_device.o
 .text.dwt_readtxtimestamplo32
                0x0000000000000000       0x2c obj_evb1000/deca_device.o
 .text.dwt_readrxtimestamphi32
                0x0000000000000000       0x2c obj_evb1000/deca_device.o
 .text.dwt_readrxtimestamplo32
                0x0000000000000000       0x2c obj_evb1000/deca_device.o
 .text.dwt_readsystimestamphi32
                0x0000000000000000       0x2c obj_evb1000/deca_device.o
 .text.dwt_readdiagnostics
                0x0000000000000000       0x94 obj_evb1000/deca_device.o
 .text.dwt_setlnapamode
                0x0000000000000000       0x60 obj_evb1000/deca_device.o
 .text.dwt_read32bitoffsetreg
                0x0000000000000000       0x2c obj_evb1000/deca_device.o
 .text.dwt_read16bitoffsetreg
                0x0000000000000000       0x24 obj_evb1000/deca_device.o
 .text.dwt_read8bitoffsetreg
                0x0000000000000000       0x1c obj_evb1000/deca_device.o
 .text.dwt_write8bitoffsetreg
                0x0000000000000000       0x1c obj_evb1000/deca_device.o
 .text.dwt_write16bitoffsetreg
                0x0000000000000000       0x20 obj_evb1000/deca_device.o
 .text.dwt_write32bitoffsetreg
                0x0000000000000000       0x2c obj_evb1000/deca_device.o
 .text._dwt_otpsetmrregs
                0x0000000000000000      0x33c obj_evb1000/deca_device.o
 .text._dwt_otpprogword32
                0x0000000000000000       0xf0 obj_evb1000/deca_device.o
 .text._dwt_aonconfigupload
                0x0000000000000000       0x30 obj_evb1000/deca_device.o
 .text.dwt_entersleep
                0x0000000000000000        0x4 obj_evb1000/deca_device.o
 .text.dwt_configuresleep
                0x0000000000000000       0x3c obj_evb1000/deca_device.o
 .text.dwt_entersleepaftertx
                0x0000000000000000       0x60 obj_evb1000/deca_device.o
 .text.dwt_spicswakeup
                0x0000000000000000       0x44 obj_evb1000/deca_device.o
 .text.dwt_setsmarttxpower
                0x0000000000000000       0x70 obj_evb1000/deca_device.o
 .text.dwt_enableautoack
                0x0000000000000000       0x4c obj_evb1000/deca_device.o
 .text.dwt_setdblrxbuffmode
                0x0000000000000000       0x54 obj_evb1000/deca_device.o
 .text.dwt_checkirq
                0x0000000000000000       0x20 obj_evb1000/deca_device.o
 .text.dwt_readaccdata
                0x0000000000000000       0x24 obj_evb1000/deca_device.o
 .text.dwt_otpread
                0x0000000000000000       0x30 obj_evb1000/deca_device.o
 .text.dwt_otpwriteandverify
                0x0000000000000000       0x48 obj_evb1000/deca_device.o
 .text.dwt_configuresleepcnt
                0x0000000000000000       0x6c obj_evb1000/deca_device.o
 .text.dwt_calibratesleepcnt
                0x0000000000000000       0xf4 obj_evb1000/deca_device.o
 .text.dwt_loadopsettabfromotp
                0x0000000000000000       0x38 obj_evb1000/deca_device.o
 .text.dwt_setdelayedtrxtime
                0x0000000000000000       0x2c obj_evb1000/deca_device.o
 .text.dwt_setsniffmode
                0x0000000000000000       0xb4 obj_evb1000/deca_device.o
 .text.dwt_setlowpowerlistening
                0x0000000000000000       0x60 obj_evb1000/deca_device.o
 .text.dwt_lowpowerlistenisr
                0x0000000000000000       0xf8 obj_evb1000/deca_device.o
 .text.dwt_setsnoozetime
                0x0000000000000000       0x1c obj_evb1000/deca_device.o
 .text.dwt_setpreambledetecttimeout
                0x0000000000000000       0x20 obj_evb1000/deca_device.o
 .text.dwt_configeventcounters
                0x0000000000000000       0x30 obj_evb1000/deca_device.o
 .text.dwt_readeventcounters
                0x0000000000000000      0x10c obj_evb1000/deca_device.o
 .text.dwt_setxtaltrim
                0x0000000000000000       0x24 obj_evb1000/deca_device.o
 .text.dwt_getinitxtaltrim
                0x0000000000000000        0xc obj_evb1000/deca_device.o
 .text.dwt_configcwmode
                0x0000000000000000      0x104 obj_evb1000/deca_device.o
 .text.dwt_configcontinuousframemode
                0x0000000000000000       0x98 obj_evb1000/deca_device.o
 .text.dwt_readtempvbat
                0x0000000000000000       0xf8 obj_evb1000/deca_device.o
 .text.dwt_readwakeuptemp
                0x0000000000000000       0x1c obj_evb1000/deca_device.o
 .text.dwt_readwakeupvbat
                0x0000000000000000       0x1c obj_evb1000/deca_device.o
 .text.dwt_calcbandwidthtempadj
                0x0000000000000000      0x1a4 obj_evb1000/deca_device.o
 .text._dwt_computetxpowersetting
                0x0000000000000000       0x54 obj_evb1000/deca_device.o
 .text.dwt_calcpowertempadj
                0x0000000000000000       0x48 obj_evb1000/deca_device.o
 .text.dwt_calcpgcount
                0x0000000000000000      0x17c obj_evb1000/deca_device.o
 .text          0x0000000000000000        0x0 obj_evb1000/deca_params_init.o
 .data          0x0000000000000000        0x0 obj_evb1000/deca_params_init.o
 .bss           0x0000000000000000        0x0 obj_evb1000/deca_params_init.o
 .rodata.txpwr_compensation
                0x0000000000000000       0x30 obj_evb1000/deca_params_init.o
 .text          0x0000000000000000        0x0 obj_evb1000/deca_range_tables.o
 .data          0x0000000000000000        0x0 obj_evb1000/deca_range_tables.o
 .bss           0x0000000000000000        0x0 obj_evb1000/deca_range_tables.o
 .text          0x0000000000000000        0x0 obj_evb1000/dw1000.o
 .data          0x0000000000000000        0x0 obj_evb1000/dw1000.o
 .bss           0x0000000000000000        0x0 obj_evb1000/dw1000.o
 .text.range_with
                0x0000000000000000        0x4 obj_evb1000/dw1000.o
 .text          0x0000000000000000        0x0 obj_evb1000/dw1000-ranging.o
 .data          0x0000000000000000        0x0 obj_evb1000/dw1000-ranging.o
 .bss           0x0000000000000000        0x0 obj_evb1000/dw1000-ranging.o
 .text.dw1000_range_with
                0x0000000000000000      0x11c obj_evb1000/dw1000-ranging.o
 .text.dw1000_rng_ok_cb
                0x0000000000000000      0x650 obj_evb1000/dw1000-ranging.o
 .bss.my_seqn   0x0000000000000000        0x1 obj_evb1000/dw1000-ranging.o
 .bss.ranging_with
                0x0000000000000000        0x8 obj_evb1000/dw1000-ranging.o
 .bss.rx_buf    0x0000000000000000       0x18 obj_evb1000/dw1000-ranging.o
 .rodata.ranging_ant_ch2
                0x0000000000000000        0x4 obj_evb1000/dw1000-ranging.o
 .rodata.ranging_ant_ch5
                0x0000000000000000        0x4 obj_evb1000/dw1000-ranging.o
 .text          0x0000000000000000        0x0 obj_evb1000/tdoa_decadriver.o
 .data          0x0000000000000000        0x0 obj_evb1000/tdoa_decadriver.o
 .bss           0x0000000000000000        0x0 obj_evb1000/tdoa_decadriver.o
 .text.dwGetSystemTimestamp
                0x0000000000000000        0xc obj_evb1000/tdoa_decadriver.o
 .text.dwSetData
                0x0000000000000000       0x24 obj_evb1000/tdoa_decadriver.o
 .text.dwStartTransmit
                0x0000000000000000       0x2c obj_evb1000/tdoa_decadriver.o
 .debug_info    0x0000000000000000      0x410 obj_evb1000/tdoa_decadriver.o
 .debug_abbrev  0x0000000000000000      0x194 obj_evb1000/tdoa_decadriver.o
 .debug_loc     0x0000000000000000       0xf1 obj_evb1000/tdoa_decadriver.o
 .debug_aranges
                0x0000000000000000       0x30 obj_evb1000/tdoa_decadriver.o
 .debug_ranges  0x0000000000000000       0x20 obj_evb1000/tdoa_decadriver.o
 .debug_line    0x0000000000000000       0xee obj_evb1000/tdoa_decadriver.o
 .debug_str     0x0000000000000000      0x331 obj_evb1000/tdoa_decadriver.o
 .comment       0x0000000000000000       0x32 obj_evb1000/tdoa_decadriver.o
 .debug_frame   0x0000000000000000       0x58 obj_evb1000/tdoa_decadriver.o
 .ARM.attributes
                0x0000000000000000       0x33 obj_evb1000/tdoa_decadriver.o
 .text          0x0000000000000000        0x0 obj_evb1000/uwb.o
 .data          0x0000000000000000        0x0 obj_evb1000/uwb.o
 .bss           0x0000000000000000        0x0 obj_evb1000/uwb.o
 .text.uwbGetConfig
                0x0000000000000000       0x10 obj_evb1000/uwb.o
 .text.uwbGetDevice
                0x0000000000000000        0x8 obj_evb1000/uwb.o
 .bss.device    0x0000000000000000       0x10 obj_evb1000/uwb.o
 .data.config   0x0000000000000000       0x2c obj_evb1000/uwb.o
 .debug_info    0x0000000000000000      0x2a6 obj_evb1000/uwb.o
 .debug_abbrev  0x0000000000000000       0xe3 obj_evb1000/uwb.o
 .debug_aranges
                0x0000000000000000       0x28 obj_evb1000/uwb.o
 .debug_ranges  0x0000000000000000       0x18 obj_evb1000/uwb.o
 .debug_line    0x0000000000000000       0xd0 obj_evb1000/uwb.o
 .debug_str     0x0000000000000000      0x2b7 obj_evb1000/uwb.o
 .comment       0x0000000000000000       0x32 obj_evb1000/uwb.o
 .debug_frame   0x0000000000000000       0x30 obj_evb1000/uwb.o
 .ARM.attributes
                0x0000000000000000       0x33 obj_evb1000/uwb.o
 .text          0x0000000000000000        0x0 obj_evb1000/uwb_tdoa_anchor3.o
 .data          0x0000000000000000        0x0 obj_evb1000/uwb_tdoa_anchor3.o
 .bss           0x0000000000000000        0x0 obj_evb1000/uwb_tdoa_anchor3.o
 .text.handleRxPacket
                0x0000000000000000      0x274 obj_evb1000/uwb_tdoa_anchor3.o
 .text.tdoa3Init
                0x0000000000000000       0x58 obj_evb1000/uwb_tdoa_anchor3.o
 .text.tdoa3UwbEvent
                0x0000000000000000      0x3fc obj_evb1000/uwb_tdoa_anchor3.o
 .bss.availableId.5857
                0x0000000000000000      0x100 obj_evb1000/uwb_tdoa_anchor3.o
 .bss.availableUsed.5858
                0x0000000000000000      0x100 obj_evb1000/uwb_tdoa_anchor3.o
 .bss.ctx       0x0000000000000000      0x4a8 obj_evb1000/uwb_tdoa_anchor3.o
 .bss.ctxts.5860
                0x0000000000000000       0x10 obj_evb1000/uwb_tdoa_anchor3.o
 .bss.rxPacket.5942
                0x0000000000000000       0x95 obj_evb1000/uwb_tdoa_anchor3.o
 .bss.txPacket.5971
                0x0000000000000000       0x95 obj_evb1000/uwb_tdoa_anchor3.o
 .data.firstEntry.5972
                0x0000000000000000        0x1 obj_evb1000/uwb_tdoa_anchor3.o
 .rodata.base_address
                0x0000000000000000        0x8 obj_evb1000/uwb_tdoa_anchor3.o
 .debug_info    0x0000000000000000     0x1ce5 obj_evb1000/uwb_tdoa_anchor3.o
 .debug_abbrev  0x0000000000000000      0x4cd obj_evb1000/uwb_tdoa_anchor3.o
 .debug_loc     0x0000000000000000      0xb53 obj_evb1000/uwb_tdoa_anchor3.o
 .debug_aranges
                0x0000000000000000       0x30 obj_evb1000/uwb_tdoa_anchor3.o
 .debug_ranges  0x0000000000000000      0x468 obj_evb1000/uwb_tdoa_anchor3.o
 .debug_line    0x0000000000000000      0x384 obj_evb1000/uwb_tdoa_anchor3.o
 .debug_str     0x0000000000000000      0xcc2 obj_evb1000/uwb_tdoa_anchor3.o
 .comment       0x0000000000000000       0x32 obj_evb1000/uwb_tdoa_anchor3.o
 .debug_frame   0x0000000000000000       0xa4 obj_evb1000/uwb_tdoa_anchor3.o
 .ARM.attributes
                0x0000000000000000       0x33 obj_evb1000/uwb_tdoa_anchor3.o
 .text          0x0000000000000000        0x0 obj_evb1000/system_stm32f10x.o
 .data          0x0000000000000000        0x0 obj_evb1000/system_stm32f10x.o
 .bss           0x0000000000000000        0x0 obj_evb1000/system_stm32f10x.o
 .text.SystemCoreClockUpdate
                0x0000000000000000       0xa8 obj_evb1000/system_stm32f10x.o
 .data.AHBPrescTable
                0x0000000000000000       0x10 obj_evb1000/system_stm32f10x.o
 .text          0x0000000000000000        0x0 obj_evb1000/core_cm3.o
 .data          0x0000000000000000        0x0 obj_evb1000/core_cm3.o
 .bss           0x0000000000000000        0x0 obj_evb1000/core_cm3.o
 .text.__get_PSP
                0x0000000000000000        0x8 obj_evb1000/core_cm3.o
 .text.__set_PSP
                0x0000000000000000        0x8 obj_evb1000/core_cm3.o
 .text.__set_MSP
                0x0000000000000000        0x8 obj_evb1000/core_cm3.o
 .text.__get_BASEPRI
                0x0000000000000000        0x8 obj_evb1000/core_cm3.o
 .text.__set_BASEPRI
                0x0000000000000000        0x8 obj_evb1000/core_cm3.o
 .text.__get_PRIMASK
                0x0000000000000000        0x8 obj_evb1000/core_cm3.o
 .text.__set_PRIMASK
                0x0000000000000000        0x8 obj_evb1000/core_cm3.o
 .text.__get_FAULTMASK
                0x0000000000000000        0x8 obj_evb1000/core_cm3.o
 .text.__set_FAULTMASK
                0x0000000000000000        0x8 obj_evb1000/core_cm3.o
 .text.__get_CONTROL
                0x0000000000000000        0x8 obj_evb1000/core_cm3.o
 .text.__set_CONTROL
                0x0000000000000000        0x8 obj_evb1000/core_cm3.o
 .text.__REV    0x0000000000000000        0x4 obj_evb1000/core_cm3.o
 .text.__REV16  0x0000000000000000        0x4 obj_evb1000/core_cm3.o
 .text.__REVSH  0x0000000000000000        0x4 obj_evb1000/core_cm3.o
 .text.__RBIT   0x0000000000000000        0x8 obj_evb1000/core_cm3.o
 .text.__LDREXB
                0x0000000000000000        0x8 obj_evb1000/core_cm3.o
 .text.__LDREXH
                0x0000000000000000        0x8 obj_evb1000/core_cm3.o
 .text.__LDREXW
                0x0000000000000000        0x8 obj_evb1000/core_cm3.o
 .text.__STREXB
                0x0000000000000000        0x8 obj_evb1000/core_cm3.o
 .text.__STREXH
                0x0000000000000000        0x8 obj_evb1000/core_cm3.o
 .text.__STREXW
                0x0000000000000000        0x8 obj_evb1000/core_cm3.o
 .text          0x0000000000000000        0x0 obj_evb1000/misc.o
 .data          0x0000000000000000        0x0 obj_evb1000/misc.o
 .bss           0x0000000000000000        0x0 obj_evb1000/misc.o
 .text.NVIC_SetVectorTable
                0x0000000000000000       0x14 obj_evb1000/misc.o
 .text.NVIC_SystemLPConfig
                0x0000000000000000       0x1c obj_evb1000/misc.o
 .text.SysTick_CLKSourceConfig
                0x0000000000000000       0x18 obj_evb1000/misc.o
 .text          0x0000000000000000        0x0 obj_evb1000/stm32f10x_cec.o
 .data          0x0000000000000000        0x0 obj_evb1000/stm32f10x_cec.o
 .bss           0x0000000000000000        0x0 obj_evb1000/stm32f10x_cec.o
 .text.CEC_DeInit
                0x0000000000000000       0x1c obj_evb1000/stm32f10x_cec.o
 .text.CEC_Init
                0x0000000000000000       0x1c obj_evb1000/stm32f10x_cec.o
 .text.CEC_Cmd  0x0000000000000000       0x18 obj_evb1000/stm32f10x_cec.o
 .text.CEC_ITConfig
                0x0000000000000000        0xc obj_evb1000/stm32f10x_cec.o
 .text.CEC_OwnAddressConfig
                0x0000000000000000        0xc obj_evb1000/stm32f10x_cec.o
 .text.CEC_SetPrescaler
                0x0000000000000000        0xc obj_evb1000/stm32f10x_cec.o
 .text.CEC_SendDataByte
                0x0000000000000000        0xc obj_evb1000/stm32f10x_cec.o
 .text.CEC_ReceiveDataByte
                0x0000000000000000        0xc obj_evb1000/stm32f10x_cec.o
 .text.CEC_StartOfMessage
                0x0000000000000000        0xc obj_evb1000/stm32f10x_cec.o
 .text.CEC_EndOfMessageCmd
                0x0000000000000000        0xc obj_evb1000/stm32f10x_cec.o
 .text.CEC_GetFlagStatus
                0x0000000000000000       0x24 obj_evb1000/stm32f10x_cec.o
 .text.CEC_ClearFlag
                0x0000000000000000       0x1c obj_evb1000/stm32f10x_cec.o
 .text.CEC_GetITStatus
                0x0000000000000000       0x14 obj_evb1000/stm32f10x_cec.o
 .text.CEC_ClearITPendingBit
                0x0000000000000000       0x1c obj_evb1000/stm32f10x_cec.o
 .debug_info    0x0000000000000000      0x465 obj_evb1000/stm32f10x_cec.o
 .debug_abbrev  0x0000000000000000      0x201 obj_evb1000/stm32f10x_cec.o
 .debug_loc     0x0000000000000000      0x1ed obj_evb1000/stm32f10x_cec.o
 .debug_aranges
                0x0000000000000000       0x88 obj_evb1000/stm32f10x_cec.o
 .debug_ranges  0x0000000000000000       0x78 obj_evb1000/stm32f10x_cec.o
 .debug_line    0x0000000000000000      0x2dd obj_evb1000/stm32f10x_cec.o
 .debug_str     0x0000000000000000      0x3e3 obj_evb1000/stm32f10x_cec.o
 .comment       0x0000000000000000       0x32 obj_evb1000/stm32f10x_cec.o
 .debug_frame   0x0000000000000000       0xfc obj_evb1000/stm32f10x_cec.o
 .ARM.attributes
                0x0000000000000000       0x33 obj_evb1000/stm32f10x_cec.o
 .text          0x0000000000000000        0x0 obj_evb1000/stm32f10x_dma.o
 .data          0x0000000000000000        0x0 obj_evb1000/stm32f10x_dma.o
 .bss           0x0000000000000000        0x0 obj_evb1000/stm32f10x_dma.o
 .text.DMA_DeInit
                0x0000000000000000      0x12c obj_evb1000/stm32f10x_dma.o
 .text.DMA_Init
                0x0000000000000000       0x40 obj_evb1000/stm32f10x_dma.o
 .text.DMA_StructInit
                0x0000000000000000       0x1c obj_evb1000/stm32f10x_dma.o
 .text.DMA_Cmd  0x0000000000000000       0x18 obj_evb1000/stm32f10x_dma.o
 .text.DMA_ITConfig
                0x0000000000000000       0x14 obj_evb1000/stm32f10x_dma.o
 .text.DMA_SetCurrDataCounter
                0x0000000000000000        0x4 obj_evb1000/stm32f10x_dma.o
 .text.DMA_GetCurrDataCounter
                0x0000000000000000        0x8 obj_evb1000/stm32f10x_dma.o
 .text.DMA_GetITStatus
                0x0000000000000000       0x1c obj_evb1000/stm32f10x_dma.o
 .text.DMA_GetFlagStatus
                0x0000000000000000        0x4 obj_evb1000/stm32f10x_dma.o
 .text.DMA_ClearITPendingBit
                0x0000000000000000       0x14 obj_evb1000/stm32f10x_dma.o
 .text.DMA_ClearFlag
                0x0000000000000000        0x4 obj_evb1000/stm32f10x_dma.o
 .debug_info    0x0000000000000000      0x44d obj_evb1000/stm32f10x_dma.o
 .debug_abbrev  0x0000000000000000      0x1de obj_evb1000/stm32f10x_dma.o
 .debug_loc     0x0000000000000000      0x12a obj_evb1000/stm32f10x_dma.o
 .debug_aranges
                0x0000000000000000       0x60 obj_evb1000/stm32f10x_dma.o
 .debug_ranges  0x0000000000000000       0x50 obj_evb1000/stm32f10x_dma.o
 .debug_line    0x0000000000000000      0x2c3 obj_evb1000/stm32f10x_dma.o
 .debug_str     0x0000000000000000      0x40d obj_evb1000/stm32f10x_dma.o
 .comment       0x0000000000000000       0x32 obj_evb1000/stm32f10x_dma.o
 .debug_frame   0x0000000000000000       0xe0 obj_evb1000/stm32f10x_dma.o
 .ARM.attributes
                0x0000000000000000       0x33 obj_evb1000/stm32f10x_dma.o
 .text          0x0000000000000000        0x0 obj_evb1000/stm32f10x_gpio.o
 .data          0x0000000000000000        0x0 obj_evb1000/stm32f10x_gpio.o
 .bss           0x0000000000000000        0x0 obj_evb1000/stm32f10x_gpio.o
 .text.GPIO_DeInit
                0x0000000000000000       0xdc obj_evb1000/stm32f10x_gpio.o
 .text.GPIO_AFIODeInit
                0x0000000000000000       0x18 obj_evb1000/stm32f10x_gpio.o
 .text.GPIO_StructInit
                0x0000000000000000       0x10 obj_evb1000/stm32f10x_gpio.o
 .text.GPIO_ReadInputData
                0x0000000000000000        0x8 obj_evb1000/stm32f10x_gpio.o
 .text.GPIO_ReadOutputDataBit
                0x0000000000000000        0xc obj_evb1000/stm32f10x_gpio.o
 .text.GPIO_ReadOutputData
                0x0000000000000000        0x8 obj_evb1000/stm32f10x_gpio.o
 .text.GPIO_Write
                0x0000000000000000        0x4 obj_evb1000/stm32f10x_gpio.o
 .text.GPIO_PinLockConfig
                0x0000000000000000       0x10 obj_evb1000/stm32f10x_gpio.o
 .text.GPIO_EventOutputConfig
                0x0000000000000000       0x1c obj_evb1000/stm32f10x_gpio.o
 .text.GPIO_EventOutputCmd
                0x0000000000000000        0xc obj_evb1000/stm32f10x_gpio.o
 .text.GPIO_PinRemapConfig
                0x0000000000000000       0x6c obj_evb1000/stm32f10x_gpio.o
 .text.GPIO_ETH_MediaInterfaceConfig
                0x0000000000000000        0xc obj_evb1000/stm32f10x_gpio.o
 .text          0x0000000000000000        0x0 obj_evb1000/stm32f10x_rcc.o
 .data          0x0000000000000000        0x0 obj_evb1000/stm32f10x_rcc.o
 .bss           0x0000000000000000        0x0 obj_evb1000/stm32f10x_rcc.o
 .text.RCC_AdjustHSICalibrationValue
                0x0000000000000000       0x14 obj_evb1000/stm32f10x_rcc.o
 .text.RCC_HSICmd
                0x0000000000000000        0xc obj_evb1000/stm32f10x_rcc.o
 .text.RCC_PLL3Config
                0x0000000000000000       0x14 obj_evb1000/stm32f10x_rcc.o
 .text.RCC_PLL3Cmd
                0x0000000000000000        0xc obj_evb1000/stm32f10x_rcc.o
 .text.RCC_ITConfig
                0x0000000000000000       0x18 obj_evb1000/stm32f10x_rcc.o
 .text.RCC_OTGFSCLKConfig
                0x0000000000000000        0xc obj_evb1000/stm32f10x_rcc.o
 .text.RCC_I2S2CLKConfig
                0x0000000000000000        0xc obj_evb1000/stm32f10x_rcc.o
 .text.RCC_I2S3CLKConfig
                0x0000000000000000        0xc obj_evb1000/stm32f10x_rcc.o
 .text.RCC_LSEConfig
                0x0000000000000000       0x20 obj_evb1000/stm32f10x_rcc.o
 .text.RCC_LSICmd
                0x0000000000000000        0xc obj_evb1000/stm32f10x_rcc.o
 .text.RCC_AHBPeriphResetCmd
                0x0000000000000000       0x18 obj_evb1000/stm32f10x_rcc.o
 .text.RCC_APB2PeriphResetCmd
                0x0000000000000000       0x18 obj_evb1000/stm32f10x_rcc.o
 .text.RCC_APB1PeriphResetCmd
                0x0000000000000000       0x18 obj_evb1000/stm32f10x_rcc.o
 .text.RCC_ClockSecuritySystemCmd
                0x0000000000000000        0xc obj_evb1000/stm32f10x_rcc.o
 .text.RCC_MCOConfig
                0x0000000000000000        0xc obj_evb1000/stm32f10x_rcc.o
 .text.RCC_ClearFlag
                0x0000000000000000       0x10 obj_evb1000/stm32f10x_rcc.o
 .text.RCC_GetITStatus
                0x0000000000000000       0x14 obj_evb1000/stm32f10x_rcc.o
 .text.RCC_ClearITPendingBit
                0x0000000000000000        0xc obj_evb1000/stm32f10x_rcc.o
 .text          0x0000000000000000        0x0 obj_evb1000/stm32f10x_tim.o
 .data          0x0000000000000000        0x0 obj_evb1000/stm32f10x_tim.o
 .bss           0x0000000000000000        0x0 obj_evb1000/stm32f10x_tim.o
 .text.TI1_Config
                0x0000000000000000       0x7c obj_evb1000/stm32f10x_tim.o
 .text.TI2_Config
                0x0000000000000000       0x7c obj_evb1000/stm32f10x_tim.o
 .text.TIM_DeInit
                0x0000000000000000      0x234 obj_evb1000/stm32f10x_tim.o
 .text.TIM_TimeBaseInit
                0x0000000000000000       0xac obj_evb1000/stm32f10x_tim.o
 .text.TIM_OC1Init
                0x0000000000000000       0x90 obj_evb1000/stm32f10x_tim.o
 .text.TIM_OC2Init
                0x0000000000000000       0x88 obj_evb1000/stm32f10x_tim.o
 .text.TIM_OC3Init
                0x0000000000000000       0x84 obj_evb1000/stm32f10x_tim.o
 .text.TIM_OC4Init
                0x0000000000000000       0x6c obj_evb1000/stm32f10x_tim.o
 .text.TIM_ICInit
                0x0000000000000000      0x17c obj_evb1000/stm32f10x_tim.o
 .text.TIM_PWMIConfig
                0x0000000000000000       0xa0 obj_evb1000/stm32f10x_tim.o
 .text.TIM_BDTRConfig
                0x0000000000000000       0x28 obj_evb1000/stm32f10x_tim.o
 .text.TIM_TimeBaseStructInit
                0x0000000000000000       0x14 obj_evb1000/stm32f10x_tim.o
 .text.TIM_OCStructInit
                0x0000000000000000       0x14 obj_evb1000/stm32f10x_tim.o
 .text.TIM_ICStructInit
                0x0000000000000000       0x10 obj_evb1000/stm32f10x_tim.o
 .text.TIM_BDTRStructInit
                0x0000000000000000       0x14 obj_evb1000/stm32f10x_tim.o
 .text.TIM_Cmd  0x0000000000000000       0x1c obj_evb1000/stm32f10x_tim.o
 .text.TIM_CtrlPWMOutputs
                0x0000000000000000       0x20 obj_evb1000/stm32f10x_tim.o
 .text.TIM_GenerateEvent
                0x0000000000000000        0x4 obj_evb1000/stm32f10x_tim.o
 .text.TIM_DMAConfig
                0x0000000000000000        0x8 obj_evb1000/stm32f10x_tim.o
 .text.TIM_DMACmd
                0x0000000000000000       0x14 obj_evb1000/stm32f10x_tim.o
 .text.TIM_ITConfig
                0x0000000000000000        0x4 obj_evb1000/stm32f10x_tim.o
 .text.TIM_InternalClockConfig
                0x0000000000000000       0x10 obj_evb1000/stm32f10x_tim.o
 .text.TIM_ITRxExternalClockConfig
                0x0000000000000000       0x1c obj_evb1000/stm32f10x_tim.o
 .text.TIM_TIxExternalClockConfig
                0x0000000000000000       0x34 obj_evb1000/stm32f10x_tim.o
 .text.TIM_ETRClockMode1Config
                0x0000000000000000       0x28 obj_evb1000/stm32f10x_tim.o
 .text.TIM_ETRClockMode2Config
                0x0000000000000000       0x20 obj_evb1000/stm32f10x_tim.o
 .text.TIM_ETRConfig
                0x0000000000000000       0x18 obj_evb1000/stm32f10x_tim.o
 .text.TIM_PrescalerConfig
                0x0000000000000000        0x8 obj_evb1000/stm32f10x_tim.o
 .text.TIM_CounterModeConfig
                0x0000000000000000       0x10 obj_evb1000/stm32f10x_tim.o
 .text.TIM_SelectInputTrigger
                0x0000000000000000       0x10 obj_evb1000/stm32f10x_tim.o
 .text.TIM_EncoderInterfaceConfig
                0x0000000000000000       0x40 obj_evb1000/stm32f10x_tim.o
 .text.TIM_ForcedOC1Config
                0x0000000000000000       0x10 obj_evb1000/stm32f10x_tim.o
 .text.TIM_ForcedOC2Config
                0x0000000000000000       0x14 obj_evb1000/stm32f10x_tim.o
 .text.TIM_ForcedOC3Config
                0x0000000000000000       0x10 obj_evb1000/stm32f10x_tim.o
 .text.TIM_ForcedOC4Config
                0x0000000000000000       0x14 obj_evb1000/stm32f10x_tim.o
 .text.TIM_ARRPreloadConfig
                0x0000000000000000       0x1c obj_evb1000/stm32f10x_tim.o
 .text.TIM_SelectCOM
                0x0000000000000000       0x1c obj_evb1000/stm32f10x_tim.o
 .text.TIM_SelectCCDMA
                0x0000000000000000       0x1c obj_evb1000/stm32f10x_tim.o
 .text.TIM_CCPreloadControl
                0x0000000000000000       0x1c obj_evb1000/stm32f10x_tim.o
 .text.TIM_OC1PreloadConfig
                0x0000000000000000       0x10 obj_evb1000/stm32f10x_tim.o
 .text.TIM_OC2PreloadConfig
                0x0000000000000000       0x14 obj_evb1000/stm32f10x_tim.o
 .text.TIM_OC3PreloadConfig
                0x0000000000000000       0x10 obj_evb1000/stm32f10x_tim.o
 .text.TIM_OC4PreloadConfig
                0x0000000000000000       0x14 obj_evb1000/stm32f10x_tim.o
 .text.TIM_OC1FastConfig
                0x0000000000000000       0x10 obj_evb1000/stm32f10x_tim.o
 .text.TIM_OC2FastConfig
                0x0000000000000000       0x14 obj_evb1000/stm32f10x_tim.o
 .text.TIM_OC3FastConfig
                0x0000000000000000       0x10 obj_evb1000/stm32f10x_tim.o
 .text.TIM_OC4FastConfig
                0x0000000000000000       0x14 obj_evb1000/stm32f10x_tim.o
 .text.TIM_ClearOC1Ref
                0x0000000000000000       0x10 obj_evb1000/stm32f10x_tim.o
 .text.TIM_ClearOC2Ref
                0x0000000000000000       0x10 obj_evb1000/stm32f10x_tim.o
 .text.TIM_ClearOC3Ref
                0x0000000000000000       0x10 obj_evb1000/stm32f10x_tim.o
 .text.TIM_ClearOC4Ref
                0x0000000000000000       0x10 obj_evb1000/stm32f10x_tim.o
 .text.TIM_OC1PolarityConfig
                0x0000000000000000       0x10 obj_evb1000/stm32f10x_tim.o
 .text.TIM_OC1NPolarityConfig
                0x0000000000000000       0x10 obj_evb1000/stm32f10x_tim.o
 .text.TIM_OC2PolarityConfig
                0x0000000000000000       0x14 obj_evb1000/stm32f10x_tim.o
 .text.TIM_OC2NPolarityConfig
                0x0000000000000000       0x14 obj_evb1000/stm32f10x_tim.o
 .text.TIM_OC3PolarityConfig
                0x0000000000000000       0x14 obj_evb1000/stm32f10x_tim.o
 .text.TIM_OC3NPolarityConfig
                0x0000000000000000       0x14 obj_evb1000/stm32f10x_tim.o
 .text.TIM_OC4PolarityConfig
                0x0000000000000000       0x14 obj_evb1000/stm32f10x_tim.o
 .text.TIM_CCxCmd
                0x0000000000000000       0x20 obj_evb1000/stm32f10x_tim.o
 .text.TIM_CCxNCmd
                0x0000000000000000       0x20 obj_evb1000/stm32f10x_tim.o
 .text.TIM_SelectOCxM
                0x0000000000000000       0x48 obj_evb1000/stm32f10x_tim.o
 .text.TIM_UpdateDisableConfig
                0x0000000000000000       0x1c obj_evb1000/stm32f10x_tim.o
 .text.TIM_UpdateRequestConfig
                0x0000000000000000       0x1c obj_evb1000/stm32f10x_tim.o
 .text.TIM_SelectHallSensor
                0x0000000000000000       0x1c obj_evb1000/stm32f10x_tim.o
 .text.TIM_SelectOnePulseMode
                0x0000000000000000       0x18 obj_evb1000/stm32f10x_tim.o
 .text.TIM_SelectOutputTrigger
                0x0000000000000000       0x18 obj_evb1000/stm32f10x_tim.o
 .text.TIM_SelectSlaveMode
                0x0000000000000000       0x18 obj_evb1000/stm32f10x_tim.o
 .text.TIM_SelectMasterSlaveMode
                0x0000000000000000       0x18 obj_evb1000/stm32f10x_tim.o
 .text.TIM_SetCounter
                0x0000000000000000        0x4 obj_evb1000/stm32f10x_tim.o
 .text.TIM_SetAutoreload
                0x0000000000000000        0x4 obj_evb1000/stm32f10x_tim.o
 .text.TIM_SetCompare1
                0x0000000000000000        0x4 obj_evb1000/stm32f10x_tim.o
 .text.TIM_SetCompare2
                0x0000000000000000        0x4 obj_evb1000/stm32f10x_tim.o
 .text.TIM_SetCompare3
                0x0000000000000000        0x4 obj_evb1000/stm32f10x_tim.o
 .text.TIM_SetCompare4
                0x0000000000000000        0x8 obj_evb1000/stm32f10x_tim.o
 .text.TIM_SetIC1Prescaler
                0x0000000000000000       0x18 obj_evb1000/stm32f10x_tim.o
 .text.TIM_SetIC2Prescaler
                0x0000000000000000       0x1c obj_evb1000/stm32f10x_tim.o
 .text.TIM_SetIC3Prescaler
                0x0000000000000000       0x18 obj_evb1000/stm32f10x_tim.o
 .text.TIM_SetIC4Prescaler
                0x0000000000000000       0x1c obj_evb1000/stm32f10x_tim.o
 .text.TIM_SetClockDivision
                0x0000000000000000       0x18 obj_evb1000/stm32f10x_tim.o
 .text.TIM_GetCapture1
                0x0000000000000000        0x8 obj_evb1000/stm32f10x_tim.o
 .text.TIM_GetCapture2
                0x0000000000000000        0x8 obj_evb1000/stm32f10x_tim.o
 .text.TIM_GetCapture3
                0x0000000000000000        0x8 obj_evb1000/stm32f10x_tim.o
 .text.TIM_GetCapture4
                0x0000000000000000        0x8 obj_evb1000/stm32f10x_tim.o
 .text.TIM_GetCounter
                0x0000000000000000        0x8 obj_evb1000/stm32f10x_tim.o
 .text.TIM_GetPrescaler
                0x0000000000000000        0x8 obj_evb1000/stm32f10x_tim.o
 .text.TIM_GetFlagStatus
                0x0000000000000000        0xc obj_evb1000/stm32f10x_tim.o
 .text.TIM_ClearFlag
                0x0000000000000000        0x8 obj_evb1000/stm32f10x_tim.o
 .text.TIM_GetITStatus
                0x0000000000000000       0x18 obj_evb1000/stm32f10x_tim.o
 .text.TIM_ClearITPendingBit
                0x0000000000000000        0x8 obj_evb1000/stm32f10x_tim.o
 .debug_info    0x0000000000000000     0x23aa obj_evb1000/stm32f10x_tim.o
 .debug_abbrev  0x0000000000000000      0x2d7 obj_evb1000/stm32f10x_tim.o
 .debug_loc     0x0000000000000000     0x1d6b obj_evb1000/stm32f10x_tim.o
 .debug_aranges
                0x0000000000000000      0x2d0 obj_evb1000/stm32f10x_tim.o
 .debug_ranges  0x0000000000000000      0x3e0 obj_evb1000/stm32f10x_tim.o
 .debug_line    0x0000000000000000      0xca7 obj_evb1000/stm32f10x_tim.o
 .debug_str     0x0000000000000000      0xe61 obj_evb1000/stm32f10x_tim.o
 .comment       0x0000000000000000       0x32 obj_evb1000/stm32f10x_tim.o
 .debug_frame   0x0000000000000000      0x75c obj_evb1000/stm32f10x_tim.o
 .ARM.attributes
                0x0000000000000000       0x33 obj_evb1000/stm32f10x_tim.o
 .text          0x0000000000000000        0x0 obj_evb1000/stm32f10x_adc.o
 .data          0x0000000000000000        0x0 obj_evb1000/stm32f10x_adc.o
 .bss           0x0000000000000000        0x0 obj_evb1000/stm32f10x_adc.o
 .text.ADC_DeInit
                0x0000000000000000       0x6c obj_evb1000/stm32f10x_adc.o
 .text.ADC_Init
                0x0000000000000000       0x48 obj_evb1000/stm32f10x_adc.o
 .text.ADC_StructInit
                0x0000000000000000       0x14 obj_evb1000/stm32f10x_adc.o
 .text.ADC_Cmd  0x0000000000000000       0x14 obj_evb1000/stm32f10x_adc.o
 .text.ADC_DMACmd
                0x0000000000000000       0x14 obj_evb1000/stm32f10x_adc.o
 .text.ADC_ITConfig
                0x0000000000000000       0x14 obj_evb1000/stm32f10x_adc.o
 .text.ADC_ResetCalibration
                0x0000000000000000        0xc obj_evb1000/stm32f10x_adc.o
 .text.ADC_GetResetCalibrationStatus
                0x0000000000000000        0x8 obj_evb1000/stm32f10x_adc.o
 .text.ADC_StartCalibration
                0x0000000000000000        0xc obj_evb1000/stm32f10x_adc.o
 .text.ADC_GetCalibrationStatus
                0x0000000000000000        0x8 obj_evb1000/stm32f10x_adc.o
 .text.ADC_SoftwareStartConvCmd
                0x0000000000000000       0x14 obj_evb1000/stm32f10x_adc.o
 .text.ADC_GetSoftwareStartConvStatus
                0x0000000000000000        0x8 obj_evb1000/stm32f10x_adc.o
 .text.ADC_DiscModeChannelCountConfig
                0x0000000000000000       0x10 obj_evb1000/stm32f10x_adc.o
 .text.ADC_DiscModeCmd
                0x0000000000000000       0x14 obj_evb1000/stm32f10x_adc.o
 .text.ADC_RegularChannelConfig
                0x0000000000000000       0x90 obj_evb1000/stm32f10x_adc.o
 .text.ADC_ExternalTrigConvCmd
                0x0000000000000000       0x14 obj_evb1000/stm32f10x_adc.o
 .text.ADC_GetConversionValue
                0x0000000000000000        0x8 obj_evb1000/stm32f10x_adc.o
 .text.ADC_GetDualModeConversionValue
                0x0000000000000000        0xc obj_evb1000/stm32f10x_adc.o
 .text.ADC_AutoInjectedConvCmd
                0x0000000000000000       0x14 obj_evb1000/stm32f10x_adc.o
 .text.ADC_InjectedDiscModeCmd
                0x0000000000000000       0x14 obj_evb1000/stm32f10x_adc.o
 .text.ADC_ExternalTrigInjectedConvConfig
                0x0000000000000000        0xc obj_evb1000/stm32f10x_adc.o
 .text.ADC_ExternalTrigInjectedConvCmd
                0x0000000000000000       0x14 obj_evb1000/stm32f10x_adc.o
 .text.ADC_SoftwareStartInjectedConvCmd
                0x0000000000000000       0x14 obj_evb1000/stm32f10x_adc.o
 .text.ADC_GetSoftwareStartInjectedConvCmdStatus
                0x0000000000000000        0x8 obj_evb1000/stm32f10x_adc.o
 .text.ADC_InjectedChannelConfig
                0x0000000000000000       0x58 obj_evb1000/stm32f10x_adc.o
 .text.ADC_InjectedSequencerLengthConfig
                0x0000000000000000       0x10 obj_evb1000/stm32f10x_adc.o
 .text.ADC_SetInjectedOffset
                0x0000000000000000       0x18 obj_evb1000/stm32f10x_adc.o
 .text.ADC_GetInjectedConversionValue
                0x0000000000000000       0x1c obj_evb1000/stm32f10x_adc.o
 .text.ADC_AnalogWatchdogCmd
                0x0000000000000000       0x10 obj_evb1000/stm32f10x_adc.o
 .text.ADC_AnalogWatchdogThresholdsConfig
                0x0000000000000000        0x8 obj_evb1000/stm32f10x_adc.o
 .text.ADC_AnalogWatchdogSingleChannelConfig
                0x0000000000000000        0xc obj_evb1000/stm32f10x_adc.o
 .text.ADC_TempSensorVrefintCmd
                0x0000000000000000       0x1c obj_evb1000/stm32f10x_adc.o
 .text.ADC_GetFlagStatus
                0x0000000000000000        0xc obj_evb1000/stm32f10x_adc.o
 .text.ADC_ClearFlag
                0x0000000000000000        0x8 obj_evb1000/stm32f10x_adc.o
 .text.ADC_GetITStatus
                0x0000000000000000       0x18 obj_evb1000/stm32f10x_adc.o
 .text.ADC_ClearITPendingBit
                0x0000000000000000        0x8 obj_evb1000/stm32f10x_adc.o
 .debug_info    0x0000000000000000      0xc22 obj_evb1000/stm32f10x_adc.o
 .debug_abbrev  0x0000000000000000      0x1f9 obj_evb1000/stm32f10x_adc.o
 .debug_loc     0x0000000000000000      0x9ce obj_evb1000/stm32f10x_adc.o
 .debug_aranges
                0x0000000000000000      0x138 obj_evb1000/stm32f10x_adc.o
 .debug_ranges  0x0000000000000000      0x128 obj_evb1000/stm32f10x_adc.o
 .debug_line    0x0000000000000000      0x528 obj_evb1000/stm32f10x_adc.o
 .debug_str     0x0000000000000000      0x768 obj_evb1000/stm32f10x_adc.o
 .comment       0x0000000000000000       0x32 obj_evb1000/stm32f10x_adc.o
 .debug_frame   0x0000000000000000      0x2c0 obj_evb1000/stm32f10x_adc.o
 .ARM.attributes
                0x0000000000000000       0x33 obj_evb1000/stm32f10x_adc.o
 .text          0x0000000000000000        0x0 obj_evb1000/stm32f10x_crc.o
 .data          0x0000000000000000        0x0 obj_evb1000/stm32f10x_crc.o
 .bss           0x0000000000000000        0x0 obj_evb1000/stm32f10x_crc.o
 .text.CRC_ResetDR
                0x0000000000000000        0xc obj_evb1000/stm32f10x_crc.o
 .text.CRC_CalcCRC
                0x0000000000000000        0xc obj_evb1000/stm32f10x_crc.o
 .text.CRC_CalcBlockCRC
                0x0000000000000000       0x1c obj_evb1000/stm32f10x_crc.o
 .text.CRC_GetCRC
                0x0000000000000000        0xc obj_evb1000/stm32f10x_crc.o
 .text.CRC_SetIDRegister
                0x0000000000000000        0xc obj_evb1000/stm32f10x_crc.o
 .text.CRC_GetIDRegister
                0x0000000000000000        0xc obj_evb1000/stm32f10x_crc.o
 .debug_info    0x0000000000000000      0x204 obj_evb1000/stm32f10x_crc.o
 .debug_abbrev  0x0000000000000000      0x136 obj_evb1000/stm32f10x_crc.o
 .debug_loc     0x0000000000000000       0x75 obj_evb1000/stm32f10x_crc.o
 .debug_aranges
                0x0000000000000000       0x48 obj_evb1000/stm32f10x_crc.o
 .debug_ranges  0x0000000000000000       0x38 obj_evb1000/stm32f10x_crc.o
 .debug_line    0x0000000000000000      0x1dd obj_evb1000/stm32f10x_crc.o
 .debug_str     0x0000000000000000      0x291 obj_evb1000/stm32f10x_crc.o
 .comment       0x0000000000000000       0x32 obj_evb1000/stm32f10x_crc.o
 .debug_frame   0x0000000000000000       0x70 obj_evb1000/stm32f10x_crc.o
 .ARM.attributes
                0x0000000000000000       0x33 obj_evb1000/stm32f10x_crc.o
 .text          0x0000000000000000        0x0 obj_evb1000/stm32f10x_exti.o
 .data          0x0000000000000000        0x0 obj_evb1000/stm32f10x_exti.o
 .bss           0x0000000000000000        0x0 obj_evb1000/stm32f10x_exti.o
 .text.EXTI_DeInit
                0x0000000000000000       0x1c obj_evb1000/stm32f10x_exti.o
 .text.EXTI_StructInit
                0x0000000000000000       0x10 obj_evb1000/stm32f10x_exti.o
 .text.EXTI_GenerateSWInterrupt
                0x0000000000000000       0x10 obj_evb1000/stm32f10x_exti.o
 .text.EXTI_GetFlagStatus
                0x0000000000000000       0x14 obj_evb1000/stm32f10x_exti.o
 .text.EXTI_ClearFlag
                0x0000000000000000        0xc obj_evb1000/stm32f10x_exti.o
 .text.EXTI_GetITStatus
                0x0000000000000000       0x1c obj_evb1000/stm32f10x_exti.o
 .text          0x0000000000000000        0x0 obj_evb1000/stm32f10x_i2c.o
 .data          0x0000000000000000        0x0 obj_evb1000/stm32f10x_i2c.o
 .bss           0x0000000000000000        0x0 obj_evb1000/stm32f10x_i2c.o
 .text.I2C_DeInit
                0x0000000000000000       0x3c obj_evb1000/stm32f10x_i2c.o
 .text.I2C_Init
                0x0000000000000000       0xe0 obj_evb1000/stm32f10x_i2c.o
 .text.I2C_StructInit
                0x0000000000000000       0x20 obj_evb1000/stm32f10x_i2c.o
 .text.I2C_Cmd  0x0000000000000000       0x1c obj_evb1000/stm32f10x_i2c.o
 .text.I2C_DMACmd
                0x0000000000000000       0x1c obj_evb1000/stm32f10x_i2c.o
 .text.I2C_DMALastTransferCmd
                0x0000000000000000       0x1c obj_evb1000/stm32f10x_i2c.o
 .text.I2C_GenerateSTART
                0x0000000000000000       0x1c obj_evb1000/stm32f10x_i2c.o
 .text.I2C_GenerateSTOP
                0x0000000000000000       0x1c obj_evb1000/stm32f10x_i2c.o
 .text.I2C_AcknowledgeConfig
                0x0000000000000000       0x1c obj_evb1000/stm32f10x_i2c.o
 .text.I2C_OwnAddress2Config
                0x0000000000000000       0x14 obj_evb1000/stm32f10x_i2c.o
 .text.I2C_DualAddressCmd
                0x0000000000000000       0x1c obj_evb1000/stm32f10x_i2c.o
 .text.I2C_GeneralCallCmd
                0x0000000000000000       0x1c obj_evb1000/stm32f10x_i2c.o
 .text.I2C_ITConfig
                0x0000000000000000       0x14 obj_evb1000/stm32f10x_i2c.o
 .text.I2C_SendData
                0x0000000000000000        0x4 obj_evb1000/stm32f10x_i2c.o
 .text.I2C_ReceiveData
                0x0000000000000000        0x8 obj_evb1000/stm32f10x_i2c.o
 .text.I2C_Send7bitAddress
                0x0000000000000000       0x18 obj_evb1000/stm32f10x_i2c.o
 .text.I2C_ReadRegister
                0x0000000000000000       0x18 obj_evb1000/stm32f10x_i2c.o
 .text.I2C_SoftwareResetCmd
                0x0000000000000000       0x1c obj_evb1000/stm32f10x_i2c.o
 .text.I2C_SMBusAlertConfig
                0x0000000000000000       0x20 obj_evb1000/stm32f10x_i2c.o
 .text.I2C_TransmitPEC
                0x0000000000000000       0x1c obj_evb1000/stm32f10x_i2c.o
 .text.I2C_PECPositionConfig
                0x0000000000000000       0x20 obj_evb1000/stm32f10x_i2c.o
 .text.I2C_NACKPositionConfig
                0x0000000000000000        0x4 obj_evb1000/stm32f10x_i2c.o
 .text.I2C_CalculatePEC
                0x0000000000000000       0x1c obj_evb1000/stm32f10x_i2c.o
 .text.I2C_GetPEC
                0x0000000000000000        0x8 obj_evb1000/stm32f10x_i2c.o
 .text.I2C_ARPCmd
                0x0000000000000000       0x1c obj_evb1000/stm32f10x_i2c.o
 .text.I2C_StretchClockCmd
                0x0000000000000000       0x1c obj_evb1000/stm32f10x_i2c.o
 .text.I2C_FastModeDutyCycleConfig
                0x0000000000000000       0x20 obj_evb1000/stm32f10x_i2c.o
 .text.I2C_CheckEvent
                0x0000000000000000       0x1c obj_evb1000/stm32f10x_i2c.o
 .text.I2C_GetLastEvent
                0x0000000000000000       0x10 obj_evb1000/stm32f10x_i2c.o
 .text.I2C_GetFlagStatus
                0x0000000000000000       0x38 obj_evb1000/stm32f10x_i2c.o
 .text.I2C_ClearFlag
                0x0000000000000000        0x8 obj_evb1000/stm32f10x_i2c.o
 .text.I2C_GetITStatus
                0x0000000000000000       0x1c obj_evb1000/stm32f10x_i2c.o
 .text.I2C_ClearITPendingBit
                0x0000000000000000        0x8 obj_evb1000/stm32f10x_i2c.o
 .debug_info    0x0000000000000000      0xb7a obj_evb1000/stm32f10x_i2c.o
 .debug_abbrev  0x0000000000000000      0x264 obj_evb1000/stm32f10x_i2c.o
 .debug_loc     0x0000000000000000      0x65d obj_evb1000/stm32f10x_i2c.o
 .debug_aranges
                0x0000000000000000      0x110 obj_evb1000/stm32f10x_i2c.o
 .debug_ranges  0x0000000000000000      0x100 obj_evb1000/stm32f10x_i2c.o
 .debug_line    0x0000000000000000      0x4b9 obj_evb1000/stm32f10x_i2c.o
 .debug_str     0x0000000000000000      0x6e5 obj_evb1000/stm32f10x_i2c.o
 .comment       0x0000000000000000       0x32 obj_evb1000/stm32f10x_i2c.o
 .debug_frame   0x0000000000000000      0x26c obj_evb1000/stm32f10x_i2c.o
 .ARM.attributes
                0x0000000000000000       0x33 obj_evb1000/stm32f10x_i2c.o
 .text          0x0000000000000000        0x0 obj_evb1000/stm32f10x_rtc.o
 .data          0x0000000000000000        0x0 obj_evb1000/stm32f10x_rtc.o
 .bss           0x0000000000000000        0x0 obj_evb1000/stm32f10x_rtc.o
 .text.RTC_EnterConfigMode
                0x0000000000000000       0x14 obj_evb1000/stm32f10x_rtc.o
 .text.RTC_ExitConfigMode
                0x0000000000000000       0x14 obj_evb1000/stm32f10x_rtc.o
 .text.RTC_SetCounter
                0x0000000000000000       0x28 obj_evb1000/stm32f10x_rtc.o
 .text.RTC_GetDivider
                0x0000000000000000       0x18 obj_evb1000/stm32f10x_rtc.o
 .text.RTC_GetFlagStatus
                0x0000000000000000       0x14 obj_evb1000/stm32f10x_rtc.o
 .text.RTC_ClearFlag
                0x0000000000000000        0x4 obj_evb1000/stm32f10x_rtc.o
 .text          0x0000000000000000        0x0 obj_evb1000/stm32f10x_usart.o
 .data          0x0000000000000000        0x0 obj_evb1000/stm32f10x_usart.o
 .bss           0x0000000000000000        0x0 obj_evb1000/stm32f10x_usart.o
 .text.USART_DeInit
                0x0000000000000000       0xb0 obj_evb1000/stm32f10x_usart.o
 .text.USART_Init
                0x0000000000000000       0xbc obj_evb1000/stm32f10x_usart.o
 .text.USART_StructInit
                0x0000000000000000       0x18 obj_evb1000/stm32f10x_usart.o
 .text.USART_ClockInit
                0x0000000000000000       0x24 obj_evb1000/stm32f10x_usart.o
 .text.USART_ClockStructInit
                0x0000000000000000        0xc obj_evb1000/stm32f10x_usart.o
 .text.USART_Cmd
                0x0000000000000000       0x1c obj_evb1000/stm32f10x_usart.o
 .text.USART_ITConfig
                0x0000000000000000       0x38 obj_evb1000/stm32f10x_usart.o
 .text.USART_DMACmd
                0x0000000000000000       0x14 obj_evb1000/stm32f10x_usart.o
 .text.USART_SetAddress
                0x0000000000000000       0x18 obj_evb1000/stm32f10x_usart.o
 .text.USART_WakeUpConfig
                0x0000000000000000       0x18 obj_evb1000/stm32f10x_usart.o
 .text.USART_ReceiverWakeUpCmd
                0x0000000000000000       0x1c obj_evb1000/stm32f10x_usart.o
 .text.USART_LINBreakDetectLengthConfig
                0x0000000000000000       0x18 obj_evb1000/stm32f10x_usart.o
 .text.USART_LINCmd
                0x0000000000000000       0x1c obj_evb1000/stm32f10x_usart.o
 .text.USART_SendData
                0x0000000000000000        0x8 obj_evb1000/stm32f10x_usart.o
 .text.USART_ReceiveData
                0x0000000000000000        0x8 obj_evb1000/stm32f10x_usart.o
 .text.USART_SendBreak
                0x0000000000000000        0xc obj_evb1000/stm32f10x_usart.o
 .text.USART_SetGuardTime
                0x0000000000000000       0x14 obj_evb1000/stm32f10x_usart.o
 .text.USART_SetPrescaler
                0x0000000000000000       0x14 obj_evb1000/stm32f10x_usart.o
 .text.USART_SmartCardCmd
                0x0000000000000000       0x1c obj_evb1000/stm32f10x_usart.o
 .text.USART_SmartCardNACKCmd
                0x0000000000000000       0x1c obj_evb1000/stm32f10x_usart.o
 .text.USART_HalfDuplexCmd
                0x0000000000000000       0x1c obj_evb1000/stm32f10x_usart.o
 .text.USART_OverSampling8Cmd
                0x0000000000000000       0x1c obj_evb1000/stm32f10x_usart.o
 .text.USART_OneBitMethodCmd
                0x0000000000000000       0x1c obj_evb1000/stm32f10x_usart.o
 .text.USART_IrDAConfig
                0x0000000000000000       0x18 obj_evb1000/stm32f10x_usart.o
 .text.USART_IrDACmd
                0x0000000000000000       0x1c obj_evb1000/stm32f10x_usart.o
 .text.USART_GetFlagStatus
                0x0000000000000000        0xc obj_evb1000/stm32f10x_usart.o
 .text.USART_ClearFlag
                0x0000000000000000        0x8 obj_evb1000/stm32f10x_usart.o
 .text.USART_GetITStatus
                0x0000000000000000       0x48 obj_evb1000/stm32f10x_usart.o
 .text.USART_ClearITPendingBit
                0x0000000000000000       0x10 obj_evb1000/stm32f10x_usart.o
 .debug_info    0x0000000000000000      0xb1f obj_evb1000/stm32f10x_usart.o
 .debug_abbrev  0x0000000000000000      0x1f7 obj_evb1000/stm32f10x_usart.o
 .debug_loc     0x0000000000000000      0x811 obj_evb1000/stm32f10x_usart.o
 .debug_aranges
                0x0000000000000000      0x100 obj_evb1000/stm32f10x_usart.o
 .debug_ranges  0x0000000000000000       0xf0 obj_evb1000/stm32f10x_usart.o
 .debug_line    0x0000000000000000      0x4a2 obj_evb1000/stm32f10x_usart.o
 .debug_str     0x0000000000000000      0x726 obj_evb1000/stm32f10x_usart.o
 .comment       0x0000000000000000       0x32 obj_evb1000/stm32f10x_usart.o
 .debug_frame   0x0000000000000000      0x258 obj_evb1000/stm32f10x_usart.o
 .ARM.attributes
                0x0000000000000000       0x33 obj_evb1000/stm32f10x_usart.o
 .text          0x0000000000000000        0x0 obj_evb1000/stm32f10x_bkp.o
 .data          0x0000000000000000        0x0 obj_evb1000/stm32f10x_bkp.o
 .bss           0x0000000000000000        0x0 obj_evb1000/stm32f10x_bkp.o
 .text.BKP_TamperPinLevelConfig
                0x0000000000000000        0xc obj_evb1000/stm32f10x_bkp.o
 .text.BKP_TamperPinCmd
                0x0000000000000000        0xc obj_evb1000/stm32f10x_bkp.o
 .text.BKP_ITConfig
                0x0000000000000000        0xc obj_evb1000/stm32f10x_bkp.o
 .text.BKP_RTCOutputConfig
                0x0000000000000000       0x18 obj_evb1000/stm32f10x_bkp.o
 .text.BKP_SetRTCCalibrationValue
                0x0000000000000000       0x18 obj_evb1000/stm32f10x_bkp.o
 .text.BKP_WriteBackupRegister
                0x0000000000000000       0x1c obj_evb1000/stm32f10x_bkp.o
 .text.BKP_ReadBackupRegister
                0x0000000000000000       0x20 obj_evb1000/stm32f10x_bkp.o
 .text.BKP_GetFlagStatus
                0x0000000000000000        0xc obj_evb1000/stm32f10x_bkp.o
 .text.BKP_ClearFlag
                0x0000000000000000       0x14 obj_evb1000/stm32f10x_bkp.o
 .text.BKP_GetITStatus
                0x0000000000000000        0xc obj_evb1000/stm32f10x_bkp.o
 .text.BKP_ClearITPendingBit
                0x0000000000000000       0x14 obj_evb1000/stm32f10x_bkp.o
 .text          0x0000000000000000        0x0 obj_evb1000/stm32f10x_dac.o
 .data          0x0000000000000000        0x0 obj_evb1000/stm32f10x_dac.o
 .bss           0x0000000000000000        0x0 obj_evb1000/stm32f10x_dac.o
 .text.DAC_DeInit
                0x0000000000000000       0x1c obj_evb1000/stm32f10x_dac.o
 .text.DAC_Init
                0x0000000000000000       0x30 obj_evb1000/stm32f10x_dac.o
 .text.DAC_StructInit
                0x0000000000000000        0xc obj_evb1000/stm32f10x_dac.o
 .text.DAC_Cmd  0x0000000000000000       0x28 obj_evb1000/stm32f10x_dac.o
 .text.DAC_DMACmd
                0x0000000000000000       0x2c obj_evb1000/stm32f10x_dac.o
 .text.DAC_SoftwareTriggerCmd
                0x0000000000000000       0x2c obj_evb1000/stm32f10x_dac.o
 .text.DAC_DualSoftwareTriggerCmd
                0x0000000000000000       0x1c obj_evb1000/stm32f10x_dac.o
 .text.DAC_WaveGenerationCmd
                0x0000000000000000       0x1c obj_evb1000/stm32f10x_dac.o
 .text.DAC_SetChannel1Data
                0x0000000000000000       0x20 obj_evb1000/stm32f10x_dac.o
 .text.DAC_SetChannel2Data
                0x0000000000000000       0x20 obj_evb1000/stm32f10x_dac.o
 .text.DAC_SetDualChannelData
                0x0000000000000000       0x18 obj_evb1000/stm32f10x_dac.o
 .text.DAC_GetDataOutputValue
                0x0000000000000000       0x24 obj_evb1000/stm32f10x_dac.o
 .debug_info    0x0000000000000000      0x4f9 obj_evb1000/stm32f10x_dac.o
 .debug_abbrev  0x0000000000000000      0x1d5 obj_evb1000/stm32f10x_dac.o
 .debug_loc     0x0000000000000000      0x2bf obj_evb1000/stm32f10x_dac.o
 .debug_aranges
                0x0000000000000000       0x78 obj_evb1000/stm32f10x_dac.o
 .debug_ranges  0x0000000000000000       0x68 obj_evb1000/stm32f10x_dac.o
 .debug_line    0x0000000000000000      0x2d9 obj_evb1000/stm32f10x_dac.o
 .debug_str     0x0000000000000000      0x41c obj_evb1000/stm32f10x_dac.o
 .comment       0x0000000000000000       0x32 obj_evb1000/stm32f10x_dac.o
 .debug_frame   0x0000000000000000      0x104 obj_evb1000/stm32f10x_dac.o
 .ARM.attributes
                0x0000000000000000       0x33 obj_evb1000/stm32f10x_dac.o
 .text          0x0000000000000000        0x0 obj_evb1000/stm32f10x_flash.o
 .data          0x0000000000000000        0x0 obj_evb1000/stm32f10x_flash.o
 .bss           0x0000000000000000        0x0 obj_evb1000/stm32f10x_flash.o
 .text.FLASH_HalfCycleAccessCmd
                0x0000000000000000       0x18 obj_evb1000/stm32f10x_flash.o
 .text.FLASH_UnlockBank1
                0x0000000000000000       0x18 obj_evb1000/stm32f10x_flash.o
 .text.FLASH_Unlock
                0x0000000000000000        0x4 obj_evb1000/stm32f10x_flash.o
 .text.FLASH_LockBank1
                0x0000000000000000       0x10 obj_evb1000/stm32f10x_flash.o
 .text.FLASH_Lock
                0x0000000000000000        0x4 obj_evb1000/stm32f10x_flash.o
 .text.FLASH_GetUserOptionByte
                0x0000000000000000        0xc obj_evb1000/stm32f10x_flash.o
 .text.FLASH_GetWriteProtectionOptionByte
                0x0000000000000000        0xc obj_evb1000/stm32f10x_flash.o
 .text.FLASH_GetReadOutProtectionStatus
                0x0000000000000000       0x10 obj_evb1000/stm32f10x_flash.o
 .text.FLASH_GetPrefetchBufferStatus
                0x0000000000000000       0x10 obj_evb1000/stm32f10x_flash.o
 .text.FLASH_ITConfig
                0x0000000000000000       0x18 obj_evb1000/stm32f10x_flash.o
 .text.FLASH_GetFlagStatus
                0x0000000000000000       0x20 obj_evb1000/stm32f10x_flash.o
 .text.FLASH_ClearFlag
                0x0000000000000000        0xc obj_evb1000/stm32f10x_flash.o
 .text.FLASH_GetStatus
                0x0000000000000000       0x28 obj_evb1000/stm32f10x_flash.o
 .text.FLASH_GetBank1Status
                0x0000000000000000       0x28 obj_evb1000/stm32f10x_flash.o
 .text.FLASH_WaitForLastBank1Operation
                0x0000000000000000       0x24 obj_evb1000/stm32f10x_flash.o
 .text.FLASH_EraseAllBank1Pages
                0x0000000000000000       0x3c obj_evb1000/stm32f10x_flash.o
 .text.FLASH_EraseAllPages
                0x0000000000000000        0x4 obj_evb1000/stm32f10x_flash.o
 .text.FLASH_UserOptionByteConfig
                0x0000000000000000       0x5c obj_evb1000/stm32f10x_flash.o
 .text.FLASH_ReadOutProtection
                0x0000000000000000       0x94 obj_evb1000/stm32f10x_flash.o
 .text.FLASH_EnableWriteProtection
                0x0000000000000000       0xa8 obj_evb1000/stm32f10x_flash.o
 .text.FLASH_ProgramOptionByteData
                0x0000000000000000       0x50 obj_evb1000/stm32f10x_flash.o
 .text.FLASH_ProgramHalfWord
                0x0000000000000000       0x38 obj_evb1000/stm32f10x_flash.o
 .text.FLASH_ProgramWord
                0x0000000000000000       0x68 obj_evb1000/stm32f10x_flash.o
 .text.FLASH_EraseOptionBytes
                0x0000000000000000       0x88 obj_evb1000/stm32f10x_flash.o
 .text.FLASH_ErasePage
                0x0000000000000000       0x40 obj_evb1000/stm32f10x_flash.o
 .text.FLASH_WaitForLastOperation
                0x0000000000000000        0x4 obj_evb1000/stm32f10x_flash.o
 .text          0x0000000000000000        0x0 obj_evb1000/stm32f10x_iwdg.o
 .data          0x0000000000000000        0x0 obj_evb1000/stm32f10x_iwdg.o
 .bss           0x0000000000000000        0x0 obj_evb1000/stm32f10x_iwdg.o
 .text.IWDG_GetFlagStatus
                0x0000000000000000       0x14 obj_evb1000/stm32f10x_iwdg.o
 .text          0x0000000000000000        0x0 obj_evb1000/stm32f10x_sdio.o
 .data          0x0000000000000000        0x0 obj_evb1000/stm32f10x_sdio.o
 .bss           0x0000000000000000        0x0 obj_evb1000/stm32f10x_sdio.o
 .text.SDIO_DeInit
                0x0000000000000000       0x24 obj_evb1000/stm32f10x_sdio.o
 .text.SDIO_Init
                0x0000000000000000       0x30 obj_evb1000/stm32f10x_sdio.o
 .text.SDIO_StructInit
                0x0000000000000000       0x10 obj_evb1000/stm32f10x_sdio.o
 .text.SDIO_ClockCmd
                0x0000000000000000        0xc obj_evb1000/stm32f10x_sdio.o
 .text.SDIO_SetPowerState
                0x0000000000000000       0x18 obj_evb1000/stm32f10x_sdio.o
 .text.SDIO_GetPowerState
                0x0000000000000000       0x10 obj_evb1000/stm32f10x_sdio.o
 .text.SDIO_ITConfig
                0x0000000000000000       0x18 obj_evb1000/stm32f10x_sdio.o
 .text.SDIO_DMACmd
                0x0000000000000000        0xc obj_evb1000/stm32f10x_sdio.o
 .text.SDIO_SendCommand
                0x0000000000000000       0x2c obj_evb1000/stm32f10x_sdio.o
 .text.SDIO_CmdStructInit
                0x0000000000000000       0x10 obj_evb1000/stm32f10x_sdio.o
 .text.SDIO_GetCommandResponse
                0x0000000000000000        0xc obj_evb1000/stm32f10x_sdio.o
 .text.SDIO_GetResponse
                0x0000000000000000       0x18 obj_evb1000/stm32f10x_sdio.o
 .text.SDIO_DataConfig
                0x0000000000000000       0x2c obj_evb1000/stm32f10x_sdio.o
 .text.SDIO_DataStructInit
                0x0000000000000000       0x14 obj_evb1000/stm32f10x_sdio.o
 .text.SDIO_GetDataCounter
                0x0000000000000000        0xc obj_evb1000/stm32f10x_sdio.o
 .text.SDIO_ReadData
                0x0000000000000000        0xc obj_evb1000/stm32f10x_sdio.o
 .text.SDIO_WriteData
                0x0000000000000000        0xc obj_evb1000/stm32f10x_sdio.o
 .text.SDIO_GetFIFOCount
                0x0000000000000000        0xc obj_evb1000/stm32f10x_sdio.o
 .text.SDIO_StartSDIOReadWait
                0x0000000000000000        0xc obj_evb1000/stm32f10x_sdio.o
 .text.SDIO_StopSDIOReadWait
                0x0000000000000000        0xc obj_evb1000/stm32f10x_sdio.o
 .text.SDIO_SetSDIOReadWaitMode
                0x0000000000000000        0xc obj_evb1000/stm32f10x_sdio.o
 .text.SDIO_SetSDIOOperation
                0x0000000000000000        0xc obj_evb1000/stm32f10x_sdio.o
 .text.SDIO_SendSDIOSuspendCmd
                0x0000000000000000        0xc obj_evb1000/stm32f10x_sdio.o
 .text.SDIO_CommandCompletionCmd
                0x0000000000000000        0xc obj_evb1000/stm32f10x_sdio.o
 .text.SDIO_CEATAITCmd
                0x0000000000000000       0x10 obj_evb1000/stm32f10x_sdio.o
 .text.SDIO_SendCEATACmd
                0x0000000000000000        0xc obj_evb1000/stm32f10x_sdio.o
 .text.SDIO_ClearFlag
                0x0000000000000000        0xc obj_evb1000/stm32f10x_sdio.o
 .text.SDIO_GetITStatus
                0x0000000000000000       0x14 obj_evb1000/stm32f10x_sdio.o
 .text.SDIO_GetFlagStatus
                0x0000000000000000        0x4 obj_evb1000/stm32f10x_sdio.o
 .text.SDIO_ClearITPendingBit
                0x0000000000000000        0xc obj_evb1000/stm32f10x_sdio.o
 .debug_info    0x0000000000000000      0x7d2 obj_evb1000/stm32f10x_sdio.o
 .debug_abbrev  0x0000000000000000      0x24c obj_evb1000/stm32f10x_sdio.o
 .debug_loc     0x0000000000000000      0x192 obj_evb1000/stm32f10x_sdio.o
 .debug_aranges
                0x0000000000000000       0xf8 obj_evb1000/stm32f10x_sdio.o
 .debug_ranges  0x0000000000000000       0xe8 obj_evb1000/stm32f10x_sdio.o
 .debug_line    0x0000000000000000      0x3df obj_evb1000/stm32f10x_sdio.o
 .debug_str     0x0000000000000000      0x686 obj_evb1000/stm32f10x_sdio.o
 .comment       0x0000000000000000       0x32 obj_evb1000/stm32f10x_sdio.o
 .debug_frame   0x0000000000000000      0x21c obj_evb1000/stm32f10x_sdio.o
 .ARM.attributes
                0x0000000000000000       0x33 obj_evb1000/stm32f10x_sdio.o
 .text          0x0000000000000000        0x0 obj_evb1000/stm32f10x_wwdg.o
 .data          0x0000000000000000        0x0 obj_evb1000/stm32f10x_wwdg.o
 .bss           0x0000000000000000        0x0 obj_evb1000/stm32f10x_wwdg.o
 .text.WWDG_DeInit
                0x0000000000000000       0x1c obj_evb1000/stm32f10x_wwdg.o
 .text.WWDG_SetPrescaler
                0x0000000000000000       0x14 obj_evb1000/stm32f10x_wwdg.o
 .text.WWDG_SetWindowValue
                0x0000000000000000       0x28 obj_evb1000/stm32f10x_wwdg.o
 .text.WWDG_EnableIT
                0x0000000000000000        0xc obj_evb1000/stm32f10x_wwdg.o
 .text.WWDG_SetCounter
                0x0000000000000000       0x10 obj_evb1000/stm32f10x_wwdg.o
 .text.WWDG_Enable
                0x0000000000000000       0x10 obj_evb1000/stm32f10x_wwdg.o
 .text.WWDG_GetFlagStatus
                0x0000000000000000        0xc obj_evb1000/stm32f10x_wwdg.o
 .text.WWDG_ClearFlag
                0x0000000000000000        0xc obj_evb1000/stm32f10x_wwdg.o
 .debug_info    0x0000000000000000      0x275 obj_evb1000/stm32f10x_wwdg.o
 .debug_abbrev  0x0000000000000000      0x15b obj_evb1000/stm32f10x_wwdg.o
 .debug_loc     0x0000000000000000       0xae obj_evb1000/stm32f10x_wwdg.o
 .debug_aranges
                0x0000000000000000       0x58 obj_evb1000/stm32f10x_wwdg.o
 .debug_ranges  0x0000000000000000       0x48 obj_evb1000/stm32f10x_wwdg.o
 .debug_line    0x0000000000000000      0x23d obj_evb1000/stm32f10x_wwdg.o
 .debug_str     0x0000000000000000      0x2ca obj_evb1000/stm32f10x_wwdg.o
 .comment       0x0000000000000000       0x32 obj_evb1000/stm32f10x_wwdg.o
 .debug_frame   0x0000000000000000       0xa4 obj_evb1000/stm32f10x_wwdg.o
 .ARM.attributes
                0x0000000000000000       0x33 obj_evb1000/stm32f10x_wwdg.o
 .text          0x0000000000000000        0x0 obj_evb1000/stm32f10x_can.o
 .data          0x0000000000000000        0x0 obj_evb1000/stm32f10x_can.o
 .bss           0x0000000000000000        0x0 obj_evb1000/stm32f10x_can.o
 .text.CAN_DeInit
                0x0000000000000000       0x3c obj_evb1000/stm32f10x_can.o
 .text.CAN_Init
                0x0000000000000000       0xe8 obj_evb1000/stm32f10x_can.o
 .text.CAN_FilterInit
                0x0000000000000000       0xf0 obj_evb1000/stm32f10x_can.o
 .text.CAN_StructInit
                0x0000000000000000       0x24 obj_evb1000/stm32f10x_can.o
 .text.CAN_SlaveStartBank
                0x0000000000000000       0x3c obj_evb1000/stm32f10x_can.o
 .text.CAN_DBGFreeze
                0x0000000000000000       0x14 obj_evb1000/stm32f10x_can.o
 .text.CAN_TTComModeCmd
                0x0000000000000000       0x5c obj_evb1000/stm32f10x_can.o
 .text.CAN_Transmit
                0x0000000000000000       0xac obj_evb1000/stm32f10x_can.o
 .text.CAN_TransmitStatus
                0x0000000000000000       0x50 obj_evb1000/stm32f10x_can.o
 .text.CAN_CancelTransmit
                0x0000000000000000       0x2c obj_evb1000/stm32f10x_can.o
 .text.CAN_Receive
                0x0000000000000000       0x98 obj_evb1000/stm32f10x_can.o
 .text.CAN_FIFORelease
                0x0000000000000000       0x18 obj_evb1000/stm32f10x_can.o
 .text.CAN_MessagePending
                0x0000000000000000       0x18 obj_evb1000/stm32f10x_can.o
 .text.CAN_OperatingModeRequest
                0x0000000000000000       0xb4 obj_evb1000/stm32f10x_can.o
 .text.CAN_Sleep
                0x0000000000000000       0x20 obj_evb1000/stm32f10x_can.o
 .text.CAN_WakeUp
                0x0000000000000000       0x2c obj_evb1000/stm32f10x_can.o
 .text.CAN_GetLastErrorCode
                0x0000000000000000        0x8 obj_evb1000/stm32f10x_can.o
 .text.CAN_GetReceiveErrorCounter
                0x0000000000000000        0x8 obj_evb1000/stm32f10x_can.o
 .text.CAN_GetLSBTransmitErrorCounter
                0x0000000000000000        0x8 obj_evb1000/stm32f10x_can.o
 .text.CAN_ITConfig
                0x0000000000000000       0x14 obj_evb1000/stm32f10x_can.o
 .text.CAN_GetFlagStatus
                0x0000000000000000       0x54 obj_evb1000/stm32f10x_can.o
 .text.CAN_ClearFlag
                0x0000000000000000       0x30 obj_evb1000/stm32f10x_can.o
 .text.CAN_GetITStatus
                0x0000000000000000       0xe0 obj_evb1000/stm32f10x_can.o
 .text.CAN_ClearITPendingBit
                0x0000000000000000       0x8c obj_evb1000/stm32f10x_can.o
 .debug_info    0x0000000000000000      0xca2 obj_evb1000/stm32f10x_can.o
 .debug_abbrev  0x0000000000000000      0x2a9 obj_evb1000/stm32f10x_can.o
 .debug_loc     0x0000000000000000      0x9ae obj_evb1000/stm32f10x_can.o
 .debug_aranges
                0x0000000000000000       0xd8 obj_evb1000/stm32f10x_can.o
 .debug_ranges  0x0000000000000000      0x150 obj_evb1000/stm32f10x_can.o
 .debug_line    0x0000000000000000      0x5bf obj_evb1000/stm32f10x_can.o
 .debug_str     0x0000000000000000      0x79b obj_evb1000/stm32f10x_can.o
 .comment       0x0000000000000000       0x32 obj_evb1000/stm32f10x_can.o
 .debug_frame   0x0000000000000000      0x200 obj_evb1000/stm32f10x_can.o
 .ARM.attributes
                0x0000000000000000       0x33 obj_evb1000/stm32f10x_can.o
 .text          0x0000000000000000        0x0 obj_evb1000/stm32f10x_dbgmcu.o
 .data          0x0000000000000000        0x0 obj_evb1000/stm32f10x_dbgmcu.o
 .bss           0x0000000000000000        0x0 obj_evb1000/stm32f10x_dbgmcu.o
 .text.DBGMCU_GetREVID
                0x0000000000000000        0xc obj_evb1000/stm32f10x_dbgmcu.o
 .text.DBGMCU_GetDEVID
                0x0000000000000000       0x10 obj_evb1000/stm32f10x_dbgmcu.o
 .text.DBGMCU_Config
                0x0000000000000000       0x18 obj_evb1000/stm32f10x_dbgmcu.o
 .debug_info    0x0000000000000000      0x15b obj_evb1000/stm32f10x_dbgmcu.o
 .debug_abbrev  0x0000000000000000      0x102 obj_evb1000/stm32f10x_dbgmcu.o
 .debug_loc     0x0000000000000000       0x3a obj_evb1000/stm32f10x_dbgmcu.o
 .debug_aranges
                0x0000000000000000       0x30 obj_evb1000/stm32f10x_dbgmcu.o
 .debug_ranges  0x0000000000000000       0x20 obj_evb1000/stm32f10x_dbgmcu.o
 .debug_line    0x0000000000000000      0x195 obj_evb1000/stm32f10x_dbgmcu.o
 .debug_str     0x0000000000000000      0x248 obj_evb1000/stm32f10x_dbgmcu.o
 .comment       0x0000000000000000       0x32 obj_evb1000/stm32f10x_dbgmcu.o
 .debug_frame   0x0000000000000000       0x40 obj_evb1000/stm32f10x_dbgmcu.o
 .ARM.attributes
                0x0000000000000000       0x33 obj_evb1000/stm32f10x_dbgmcu.o
 .text          0x0000000000000000        0x0 obj_evb1000/stm32f10x_fsmc.o
 .data          0x0000000000000000        0x0 obj_evb1000/stm32f10x_fsmc.o
 .bss           0x0000000000000000        0x0 obj_evb1000/stm32f10x_fsmc.o
 .text.FSMC_NORSRAMDeInit
                0x0000000000000000       0x28 obj_evb1000/stm32f10x_fsmc.o
 .text.FSMC_NANDDeInit
                0x0000000000000000       0x28 obj_evb1000/stm32f10x_fsmc.o
 .text.FSMC_PCCARDDeInit
                0x0000000000000000       0x1c obj_evb1000/stm32f10x_fsmc.o
 .text.FSMC_NORSRAMInit
                0x0000000000000000       0xac obj_evb1000/stm32f10x_fsmc.o
 .text.FSMC_NANDInit
                0x0000000000000000       0x6c obj_evb1000/stm32f10x_fsmc.o
 .text.FSMC_PCCARDInit
                0x0000000000000000       0x68 obj_evb1000/stm32f10x_fsmc.o
 .text.FSMC_NORSRAMStructInit
                0x0000000000000000       0x50 obj_evb1000/stm32f10x_fsmc.o
 .text.FSMC_NANDStructInit
                0x0000000000000000       0x30 obj_evb1000/stm32f10x_fsmc.o
 .text.FSMC_PCCARDStructInit
                0x0000000000000000       0x30 obj_evb1000/stm32f10x_fsmc.o
 .text.FSMC_NORSRAMCmd
                0x0000000000000000       0x20 obj_evb1000/stm32f10x_fsmc.o
 .text.FSMC_NANDCmd
                0x0000000000000000       0x34 obj_evb1000/stm32f10x_fsmc.o
 .text.FSMC_PCCARDCmd
                0x0000000000000000       0x20 obj_evb1000/stm32f10x_fsmc.o
 .text.FSMC_NANDECCCmd
                0x0000000000000000       0x34 obj_evb1000/stm32f10x_fsmc.o
 .text.FSMC_GetECC
                0x0000000000000000       0x14 obj_evb1000/stm32f10x_fsmc.o
 .text.FSMC_ITConfig
                0x0000000000000000       0x54 obj_evb1000/stm32f10x_fsmc.o
 .text.FSMC_GetFlagStatus
                0x0000000000000000       0x2c obj_evb1000/stm32f10x_fsmc.o
 .text.FSMC_ClearFlag
                0x0000000000000000       0x30 obj_evb1000/stm32f10x_fsmc.o
 .text.FSMC_GetITStatus
                0x0000000000000000       0x34 obj_evb1000/stm32f10x_fsmc.o
 .text.FSMC_ClearITPendingBit
                0x0000000000000000       0x30 obj_evb1000/stm32f10x_fsmc.o
 .debug_info    0x0000000000000000      0x8fe obj_evb1000/stm32f10x_fsmc.o
 .debug_abbrev  0x0000000000000000      0x1ac obj_evb1000/stm32f10x_fsmc.o
 .debug_loc     0x0000000000000000      0x48a obj_evb1000/stm32f10x_fsmc.o
 .debug_aranges
                0x0000000000000000       0xb0 obj_evb1000/stm32f10x_fsmc.o
 .debug_ranges  0x0000000000000000       0xa0 obj_evb1000/stm32f10x_fsmc.o
 .debug_line    0x0000000000000000      0x46a obj_evb1000/stm32f10x_fsmc.o
 .debug_str     0x0000000000000000      0x7d0 obj_evb1000/stm32f10x_fsmc.o
 .comment       0x0000000000000000       0x32 obj_evb1000/stm32f10x_fsmc.o
 .debug_frame   0x0000000000000000      0x1a0 obj_evb1000/stm32f10x_fsmc.o
 .ARM.attributes
                0x0000000000000000       0x33 obj_evb1000/stm32f10x_fsmc.o
 .text          0x0000000000000000        0x0 obj_evb1000/stm32f10x_pwr.o
 .data          0x0000000000000000        0x0 obj_evb1000/stm32f10x_pwr.o
 .bss           0x0000000000000000        0x0 obj_evb1000/stm32f10x_pwr.o
 .text.PWR_DeInit
                0x0000000000000000       0x1c obj_evb1000/stm32f10x_pwr.o
 .text.PWR_PVDCmd
                0x0000000000000000        0xc obj_evb1000/stm32f10x_pwr.o
 .text.PWR_PVDLevelConfig
                0x0000000000000000       0x14 obj_evb1000/stm32f10x_pwr.o
 .text.PWR_WakeUpPinCmd
                0x0000000000000000        0xc obj_evb1000/stm32f10x_pwr.o
 .text.PWR_EnterSTOPMode
                0x0000000000000000       0x3c obj_evb1000/stm32f10x_pwr.o
 .text.PWR_EnterSTANDBYMode
                0x0000000000000000       0x28 obj_evb1000/stm32f10x_pwr.o
 .text          0x0000000000000000        0x0 obj_evb1000/stm32f10x_spi.o
 .data          0x0000000000000000        0x0 obj_evb1000/stm32f10x_spi.o
 .bss           0x0000000000000000        0x0 obj_evb1000/stm32f10x_spi.o
 .text.SPI_I2S_DeInit
                0x0000000000000000       0x6c obj_evb1000/stm32f10x_spi.o
 .text.I2S_Init
                0x0000000000000000      0x114 obj_evb1000/stm32f10x_spi.o
 .text.I2S_StructInit
                0x0000000000000000       0x14 obj_evb1000/stm32f10x_spi.o
 .text.I2S_Cmd  0x0000000000000000       0x1c obj_evb1000/stm32f10x_spi.o
 .text.SPI_I2S_ITConfig
                0x0000000000000000       0x1c obj_evb1000/stm32f10x_spi.o
 .text.SPI_I2S_DMACmd
                0x0000000000000000       0x14 obj_evb1000/stm32f10x_spi.o
 .text.SPI_NSSInternalSoftwareConfig
                0x0000000000000000       0x20 obj_evb1000/stm32f10x_spi.o
 .text.SPI_DataSizeConfig
                0x0000000000000000       0x18 obj_evb1000/stm32f10x_spi.o
 .text.SPI_TransmitCRC
                0x0000000000000000        0xc obj_evb1000/stm32f10x_spi.o
 .text.SPI_CalculateCRC
                0x0000000000000000       0x1c obj_evb1000/stm32f10x_spi.o
 .text.SPI_GetCRC
                0x0000000000000000        0xc obj_evb1000/stm32f10x_spi.o
 .text.SPI_GetCRCPolynomial
                0x0000000000000000        0x8 obj_evb1000/stm32f10x_spi.o
 .text.SPI_BiDirectionalLineConfig
                0x0000000000000000       0x20 obj_evb1000/stm32f10x_spi.o
 .text.SPI_I2S_ClearFlag
                0x0000000000000000        0x8 obj_evb1000/stm32f10x_spi.o
 .text.SPI_I2S_GetITStatus
                0x0000000000000000       0x28 obj_evb1000/stm32f10x_spi.o
 .text.SPI_I2S_ClearITPendingBit
                0x0000000000000000       0x10 obj_evb1000/stm32f10x_spi.o
 .text          0x0000000000000000        0x0 obj_evb1000/usbd_core.o
 .data          0x0000000000000000        0x0 obj_evb1000/usbd_core.o
 .bss           0x0000000000000000        0x0 obj_evb1000/usbd_core.o
 .text.USBD_DeInit
                0x0000000000000000        0x4 obj_evb1000/usbd_core.o
 .text          0x0000000000000000        0x0 obj_evb1000/usbd_ioreq.o
 .data          0x0000000000000000        0x0 obj_evb1000/usbd_ioreq.o
 .bss           0x0000000000000000        0x0 obj_evb1000/usbd_ioreq.o
 .text.USBD_GetRxCount
                0x0000000000000000       0x10 obj_evb1000/usbd_ioreq.o
 .text          0x0000000000000000        0x0 obj_evb1000/usbd_req.o
 .data          0x0000000000000000        0x0 obj_evb1000/usbd_req.o
 .bss           0x0000000000000000        0x0 obj_evb1000/usbd_req.o
 .text          0x0000000000000000        0x0 obj_evb1000/usbd_cdc_core.o
 .data          0x0000000000000000        0x0 obj_evb1000/usbd_cdc_core.o
 .bss           0x0000000000000000        0x0 obj_evb1000/usbd_cdc_core.o
 .text          0x0000000000000000        0x0 obj_evb1000/deca_usb.o
 .data          0x0000000000000000        0x0 obj_evb1000/deca_usb.o
 .bss           0x0000000000000000        0x0 obj_evb1000/deca_usb.o
 .text          0x0000000000000000        0x0 obj_evb1000/deca_usb_bsp_evk1000.o
 .data          0x0000000000000000        0x0 obj_evb1000/deca_usb_bsp_evk1000.o
 .bss           0x0000000000000000        0x0 obj_evb1000/deca_usb_bsp_evk1000.o
 .text.USB_OTG_BSP_DriveVBUS
                0x0000000000000000        0x4 obj_evb1000/deca_usb_bsp_evk1000.o
 .text.USB_OTG_BSP_ConfigVBUS
                0x0000000000000000        0x4 obj_evb1000/deca_usb_bsp_evk1000.o
 .text.USB_OTG_BSP_TimeInit
                0x0000000000000000        0x4 obj_evb1000/deca_usb_bsp_evk1000.o
 .text.USB_OTG_BSP_TimerIRQ
                0x0000000000000000        0x4 obj_evb1000/deca_usb_bsp_evk1000.o
 .text          0x0000000000000000        0x0 obj_evb1000/usbd_desc.o
 .data          0x0000000000000000        0x0 obj_evb1000/usbd_desc.o
 .bss           0x0000000000000000        0x0 obj_evb1000/usbd_desc.o
 .data.USBD_DeviceQualifierDesc
                0x0000000000000000        0xa obj_evb1000/usbd_desc.o
 .text          0x0000000000000000        0x0 obj_evb1000/usbd_usr.o
 .data          0x0000000000000000        0x0 obj_evb1000/usbd_usr.o
 .bss           0x0000000000000000        0x0 obj_evb1000/usbd_usr.o
 .text          0x0000000000000000        0x0 obj_evb1000/usb_core.o
 .data          0x0000000000000000        0x0 obj_evb1000/usb_core.o
 .bss           0x0000000000000000        0x0 obj_evb1000/usb_core.o
 .text.USB_OTG_GetMode
                0x0000000000000000        0xc obj_evb1000/usb_core.o
 .text.USB_OTG_IsHostMode
                0x0000000000000000        0xc obj_evb1000/usb_core.o
 .text.USB_OTG_ReadOtgItr
                0x0000000000000000        0x8 obj_evb1000/usb_core.o
 .text.USB_OTG_InitDevSpeed
                0x0000000000000000        0xc obj_evb1000/usb_core.o
 .text.USB_OTG_ActiveRemoteWakeup
                0x0000000000000000       0x44 obj_evb1000/usb_core.o
 .text.USB_OTG_StopDevice
                0x0000000000000000       0x50 obj_evb1000/usb_core.o
 .text.USB_OTG_GetEPStatus
                0x0000000000000000       0x4c obj_evb1000/usb_core.o
 .text.USB_OTG_SetEPStatus
                0x0000000000000000       0x98 obj_evb1000/usb_core.o
 .text          0x0000000000000000        0x0 obj_evb1000/usb_dcd_int.o
 .data          0x0000000000000000        0x0 obj_evb1000/usb_dcd_int.o
 .bss           0x0000000000000000        0x0 obj_evb1000/usb_dcd_int.o
 .text          0x0000000000000000        0x0 obj_evb1000/usb_dcd.o
 .data          0x0000000000000000        0x0 obj_evb1000/usb_dcd.o
 .bss           0x0000000000000000        0x0 obj_evb1000/usb_dcd.o
 .text.DCD_EP_Flush
                0x0000000000000000       0x1c obj_evb1000/usb_dcd.o
 .text.DCD_DevConnect
                0x0000000000000000       0x10 obj_evb1000/usb_dcd.o
 .text.DCD_DevDisconnect
                0x0000000000000000       0x10 obj_evb1000/usb_dcd.o
 .text.DCD_GetEPStatus
                0x0000000000000000       0x28 obj_evb1000/usb_dcd.o
 .text.DCD_SetEPStatus
                0x0000000000000000       0x28 obj_evb1000/usb_dcd.o
 .text          0x0000000000000000        0x0 obj_evb1000/clock.o
 .data          0x0000000000000000        0x0 obj_evb1000/clock.o
 .bss           0x0000000000000000        0x0 obj_evb1000/clock.o
 .text.clock_set_seconds
                0x0000000000000000        0xc obj_evb1000/clock.o
 .text.clock_delay_usec
                0x0000000000000000       0x28 obj_evb1000/clock.o
 .text          0x0000000000000000        0x0 obj_evb1000/watchdog.o
 .data          0x0000000000000000        0x0 obj_evb1000/watchdog.o
 .bss           0x0000000000000000        0x0 obj_evb1000/watchdog.o
 .text.watchdog_stop
                0x0000000000000000        0x4 obj_evb1000/watchdog.o
 .text.watchdog_reboot
                0x0000000000000000        0xc obj_evb1000/watchdog.o
 .data.lsi_freq
                0x0000000000000000        0x4 obj_evb1000/watchdog.o
 .text          0x0000000000000000        0x0 obj_evb1000/rtimer-arch.o
 .data          0x0000000000000000        0x0 obj_evb1000/rtimer-arch.o
 .bss           0x0000000000000000        0x0 obj_evb1000/rtimer-arch.o
 .text          0x0000000000000000        0x0 obj_evb1000/spix.o
 .data          0x0000000000000000        0x0 obj_evb1000/spix.o
 .bss           0x0000000000000000        0x0 obj_evb1000/spix.o
 .text          0x0000000000000000        0x0 contiki-evb1000.a(autostart.o)
 .data          0x0000000000000000        0x0 contiki-evb1000.a(autostart.o)
 .bss           0x0000000000000000        0x0 contiki-evb1000.a(autostart.o)
 .text.autostart_exit
                0x0000000000000000       0x18 contiki-evb1000.a(autostart.o)
 .text          0x0000000000000000        0x0 contiki-evb1000.a(ctimer.o)
 .data          0x0000000000000000        0x0 contiki-evb1000.a(ctimer.o)
 .bss           0x0000000000000000        0x0 contiki-evb1000.a(ctimer.o)
 .text.ctimer_expired
                0x0000000000000000       0x38 contiki-evb1000.a(ctimer.o)
 .text          0x0000000000000000        0x0 contiki-evb1000.a(energest.o)
 .data          0x0000000000000000        0x0 contiki-evb1000.a(energest.o)
 .bss           0x0000000000000000        0x0 contiki-evb1000.a(energest.o)
 .text.energest_type_set
                0x0000000000000000        0x4 contiki-evb1000.a(energest.o)
 .text.energest_type_time
                0x0000000000000000        0x4 contiki-evb1000.a(energest.o)
 .text.energest_flush
                0x0000000000000000        0x4 contiki-evb1000.a(energest.o)
 .text          0x0000000000000000        0x0 contiki-evb1000.a(etimer.o)
 .data          0x0000000000000000        0x0 contiki-evb1000.a(etimer.o)
 .bss           0x0000000000000000        0x0 contiki-evb1000.a(etimer.o)
 .text.etimer_reset_with_new_interval
                0x0000000000000000       0x18 contiki-evb1000.a(etimer.o)
 .text.etimer_adjust
                0x0000000000000000        0xc contiki-evb1000.a(etimer.o)
 .text.etimer_start_time
                0x0000000000000000        0x4 contiki-evb1000.a(etimer.o)
 .text.etimer_next_expiration_time
                0x0000000000000000       0x14 contiki-evb1000.a(etimer.o)
 .text          0x0000000000000000        0x0 contiki-evb1000.a(process.o)
 .data          0x0000000000000000        0x0 contiki-evb1000.a(process.o)
 .bss           0x0000000000000000        0x0 contiki-evb1000.a(process.o)
 .text.process_exit
                0x0000000000000000        0xc contiki-evb1000.a(process.o)
 .text.process_nevents
                0x0000000000000000       0x14 contiki-evb1000.a(process.o)
 .text.process_is_running
                0x0000000000000000        0xc contiki-evb1000.a(process.o)
 .text          0x0000000000000000        0x0 contiki-evb1000.a(rtimer.o)
 .data          0x0000000000000000        0x0 contiki-evb1000.a(rtimer.o)
 .bss           0x0000000000000000        0x0 contiki-evb1000.a(rtimer.o)
 .text.rtimer_set
                0x0000000000000000       0x2c contiki-evb1000.a(rtimer.o)
 .text          0x0000000000000000        0x0 contiki-evb1000.a(timer.o)
 .data          0x0000000000000000        0x0 contiki-evb1000.a(timer.o)
 .bss           0x0000000000000000        0x0 contiki-evb1000.a(timer.o)
 .text.timer_remaining
                0x0000000000000000       0x10 contiki-evb1000.a(timer.o)
 .text          0x0000000000000000        0x0 contiki-evb1000.a(serial-line.o)
 .data          0x0000000000000000        0x0 contiki-evb1000.a(serial-line.o)
 .bss           0x0000000000000000        0x0 contiki-evb1000.a(serial-line.o)
 .text          0x0000000000000000        0x0 contiki-evb1000.a(leds.o)
 .data          0x0000000000000000        0x0 contiki-evb1000.a(leds.o)
 .bss           0x0000000000000000        0x0 contiki-evb1000.a(leds.o)
 .text.leds_blink
                0x0000000000000000       0x30 contiki-evb1000.a(leds.o)
 .text.leds_get
                0x0000000000000000        0x4 contiki-evb1000.a(leds.o)
 .text          0x0000000000000000        0x0 contiki-evb1000.a(list.o)
 .data          0x0000000000000000        0x0 contiki-evb1000.a(list.o)
 .bss           0x0000000000000000        0x0 contiki-evb1000.a(list.o)
 .text.list_copy
                0x0000000000000000        0x8 contiki-evb1000.a(list.o)
 .text.list_tail
                0x0000000000000000       0x10 contiki-evb1000.a(list.o)
 .text.list_chop
                0x0000000000000000       0x24 contiki-evb1000.a(list.o)
 .text.list_pop
                0x0000000000000000        0xc contiki-evb1000.a(list.o)
 .text.list_insert
                0x0000000000000000       0x48 contiki-evb1000.a(list.o)
 .text          0x0000000000000000        0x0 contiki-evb1000.a(ringbuf.o)
 .data          0x0000000000000000        0x0 contiki-evb1000.a(ringbuf.o)
 .bss           0x0000000000000000        0x0 contiki-evb1000.a(ringbuf.o)
 .text.ringbuf_size
                0x0000000000000000        0x8 contiki-evb1000.a(ringbuf.o)
 .text.ringbuf_elements
                0x0000000000000000        0xc contiki-evb1000.a(ringbuf.o)
 .text          0x0000000000000000        0x0 contiki-evb1000.a(uip6.o)
 .data          0x0000000000000000        0x0 contiki-evb1000.a(uip6.o)
 .bss           0x0000000000000000        0x0 contiki-evb1000.a(uip6.o)
 .text.uip_chksum
                0x0000000000000000       0x14 contiki-evb1000.a(uip6.o)
 .text.uip_ipchksum
                0x0000000000000000       0x48 contiki-evb1000.a(uip6.o)
 .text.uip_tcpchksum
                0x0000000000000000        0x8 contiki-evb1000.a(uip6.o)
 .text.uip_udpchksum
                0x0000000000000000        0x8 contiki-evb1000.a(uip6.o)
 .text.uip_connect
                0x0000000000000000       0xf0 contiki-evb1000.a(uip6.o)
 .text.uip_udp_new
                0x0000000000000000       0x94 contiki-evb1000.a(uip6.o)
 .text.uip_listen
                0x0000000000000000       0x24 contiki-evb1000.a(uip6.o)
 .text.uip_htons
                0x0000000000000000        0x8 contiki-evb1000.a(uip6.o)
 .text.uip_send
                0x0000000000000000       0x4c contiki-evb1000.a(uip6.o)
 .text          0x0000000000000000        0x0 contiki-evb1000.a(uip-nd6.o)
 .data          0x0000000000000000        0x0 contiki-evb1000.a(uip-nd6.o)
 .bss           0x0000000000000000        0x0 contiki-evb1000.a(uip-nd6.o)
 .text          0x0000000000000000        0x0 contiki-evb1000.a(tcpip.o)
 .data          0x0000000000000000        0x0 contiki-evb1000.a(tcpip.o)
 .bss           0x0000000000000000        0x0 contiki-evb1000.a(tcpip.o)
 .text.tcpip_output
                0x0000000000000000       0x10 contiki-evb1000.a(tcpip.o)
 .text.tcp_connect
                0x0000000000000000       0x2c contiki-evb1000.a(tcpip.o)
 .text.tcp_unlisten
                0x0000000000000000       0x38 contiki-evb1000.a(tcpip.o)
 .text.tcp_listen
                0x0000000000000000       0x30 contiki-evb1000.a(tcpip.o)
 .text.tcp_attach
                0x0000000000000000       0x10 contiki-evb1000.a(tcpip.o)
 .text.udp_attach
                0x0000000000000000       0x10 contiki-evb1000.a(tcpip.o)
 .text.udp_new  0x0000000000000000       0x18 contiki-evb1000.a(tcpip.o)
 .text.udp_broadcast_new
                0x0000000000000000       0x50 contiki-evb1000.a(tcpip.o)
 .text.icmp6_new
                0x0000000000000000       0x20 contiki-evb1000.a(tcpip.o)
 .text.tcpip_poll_udp
                0x0000000000000000       0x10 contiki-evb1000.a(tcpip.o)
 .text.tcpip_poll_tcp
                0x0000000000000000       0x10 contiki-evb1000.a(tcpip.o)
 .text          0x0000000000000000        0x0 contiki-evb1000.a(rpl-dag.o)
 .data          0x0000000000000000        0x0 contiki-evb1000.a(rpl-dag.o)
 .bss           0x0000000000000000        0x0 contiki-evb1000.a(rpl-dag.o)
 .text.rpl_get_nbr
                0x0000000000000000       0x28 contiki-evb1000.a(rpl-dag.o)
 .text.rpl_get_parent_rank
                0x0000000000000000       0x1c contiki-evb1000.a(rpl-dag.o)
 .text.rpl_get_parent_link_metric
                0x0000000000000000       0x1c contiki-evb1000.a(rpl-dag.o)
 .text.rpl_get_parent_lladdr
                0x0000000000000000       0x10 contiki-evb1000.a(rpl-dag.o)
 .text.rpl_print_neighbor_list
                0x0000000000000000      0x10c contiki-evb1000.a(rpl-dag.o)
 .text.rpl_set_default_instance
                0x0000000000000000        0xc contiki-evb1000.a(rpl-dag.o)
 .text.rpl_get_default_instance
                0x0000000000000000        0xc contiki-evb1000.a(rpl-dag.o)
 .text.rpl_remove_parent
                0x0000000000000000       0x1c contiki-evb1000.a(rpl-dag.o)
 .text.rpl_free_instance
                0x0000000000000000       0x70 contiki-evb1000.a(rpl-dag.o)
 .text.rpl_set_root
                0x0000000000000000      0x13c contiki-evb1000.a(rpl-dag.o)
 .text.rpl_has_downward_route
                0x0000000000000000       0x18 contiki-evb1000.a(rpl-dag.o)
 .text.rpl_find_of
                0x0000000000000000       0x14 contiki-evb1000.a(rpl-dag.o)
 .rodata.rpl_print_neighbor_list.str1.4
                0x0000000000000000       0x87 contiki-evb1000.a(rpl-dag.o)
 .text          0x0000000000000000        0x0 contiki-evb1000.a(rpl-timers.o)
 .data          0x0000000000000000        0x0 contiki-evb1000.a(rpl-timers.o)
 .bss           0x0000000000000000        0x0 contiki-evb1000.a(rpl-timers.o)
 .text.rpl_schedule_dao_immediately
                0x0000000000000000        0x8 contiki-evb1000.a(rpl-timers.o)
 .text.rpl_cancel_dao
                0x0000000000000000       0x18 contiki-evb1000.a(rpl-timers.o)
 .text          0x0000000000000000        0x0 contiki-evb1000.a(rpl-ext-header.)
 .data          0x0000000000000000        0x0 contiki-evb1000.a(rpl-ext-header.)
 .bss           0x0000000000000000        0x0 contiki-evb1000.a(rpl-ext-header.)
 .text          0x0000000000000000        0x0 contiki-evb1000.a(rpl.o)
 .data          0x0000000000000000        0x0 contiki-evb1000.a(rpl.o)
 .bss           0x0000000000000000        0x0 contiki-evb1000.a(rpl.o)
 .text.rpl_set_mode
                0x0000000000000000       0x4c contiki-evb1000.a(rpl.o)
 .text          0x0000000000000000        0x0 contiki-evb1000.a(rpl-mrhof.o)
 .data          0x0000000000000000        0x0 contiki-evb1000.a(rpl-mrhof.o)
 .bss           0x0000000000000000        0x0 contiki-evb1000.a(rpl-mrhof.o)
 .text          0x0000000000000000        0x0 contiki-evb1000.a(queuebuf.o)
 .data          0x0000000000000000        0x0 contiki-evb1000.a(queuebuf.o)
 .bss           0x0000000000000000        0x0 contiki-evb1000.a(queuebuf.o)
 .text.queuebuf_update_from_packetbuf
                0x0000000000000000       0x1c contiki-evb1000.a(queuebuf.o)
 .text.queuebuf_dataptr
                0x0000000000000000       0x18 contiki-evb1000.a(queuebuf.o)
 .text.queuebuf_datalen
                0x0000000000000000        0x8 contiki-evb1000.a(queuebuf.o)
 .text.queuebuf_addr
                0x0000000000000000        0xc contiki-evb1000.a(queuebuf.o)
 .text.queuebuf_debug_print
                0x0000000000000000        0x4 contiki-evb1000.a(queuebuf.o)
 .text          0x0000000000000000        0x0 contiki-evb1000.a(nbr-table.o)
 .data          0x0000000000000000        0x0 contiki-evb1000.a(nbr-table.o)
 .bss           0x0000000000000000        0x0 contiki-evb1000.a(nbr-table.o)
 .text          0x0000000000000000        0x0 contiki-evb1000.a(packetbuf.o)
 .data          0x0000000000000000        0x0 contiki-evb1000.a(packetbuf.o)
 .bss           0x0000000000000000        0x0 contiki-evb1000.a(packetbuf.o)
 .text.packetbuf_compact
                0x0000000000000000       0x44 contiki-evb1000.a(packetbuf.o)
 .text.packetbuf_hdrlen
                0x0000000000000000       0x18 contiki-evb1000.a(packetbuf.o)
 .text.packetbuf_remaininglen
                0x0000000000000000       0x28 contiki-evb1000.a(packetbuf.o)
 .text          0x0000000000000000        0x0 contiki-evb1000.a(netstack.o)
 .data          0x0000000000000000        0x0 contiki-evb1000.a(netstack.o)
 .bss           0x0000000000000000        0x0 contiki-evb1000.a(netstack.o)
 .text          0x0000000000000000        0x0 contiki-evb1000.a(linkaddr.o)
 .data          0x0000000000000000        0x0 contiki-evb1000.a(linkaddr.o)
 .bss           0x0000000000000000        0x0 contiki-evb1000.a(linkaddr.o)
 .text.linkaddr_set_node_addr
                0x0000000000000000       0x10 contiki-evb1000.a(linkaddr.o)
 .text          0x0000000000000000        0x0 contiki-evb1000.a(link-stats.o)
 .data          0x0000000000000000        0x0 contiki-evb1000.a(link-stats.o)
 .bss           0x0000000000000000        0x0 contiki-evb1000.a(link-stats.o)
 .text.guess_etx_from_rssi
                0x0000000000000000       0x40 contiki-evb1000.a(link-stats.o)
 .text          0x0000000000000000        0x0 contiki-evb1000.a(nullrdc.o)
 .data          0x0000000000000000        0x0 contiki-evb1000.a(nullrdc.o)
 .bss           0x0000000000000000        0x0 contiki-evb1000.a(nullrdc.o)
 .text          0x0000000000000000        0x0 contiki-evb1000.a(nullsec.o)
 .data          0x0000000000000000        0x0 contiki-evb1000.a(nullsec.o)
 .bss           0x0000000000000000        0x0 contiki-evb1000.a(nullsec.o)
 .text          0x0000000000000000        0x0 contiki-evb1000.a(memb.o)
 .data          0x0000000000000000        0x0 contiki-evb1000.a(memb.o)
 .bss           0x0000000000000000        0x0 contiki-evb1000.a(memb.o)
 .text          0x0000000000000000        0x0 contiki-evb1000.a(random.o)
 .data          0x0000000000000000        0x0 contiki-evb1000.a(random.o)
 .bss           0x0000000000000000        0x0 contiki-evb1000.a(random.o)
 .text.random_init
                0x0000000000000000        0x4 contiki-evb1000.a(random.o)
 .text          0x0000000000000000        0x0 contiki-evb1000.a(uip-icmp6.o)
 .data          0x0000000000000000        0x0 contiki-evb1000.a(uip-icmp6.o)
 .bss           0x0000000000000000        0x0 contiki-evb1000.a(uip-icmp6.o)
 .text.uip_icmp6_echo_reply_callback_add
                0x0000000000000000       0x14 contiki-evb1000.a(uip-icmp6.o)
 .text.uip_icmp6_echo_reply_callback_rm
                0x0000000000000000        0xc contiki-evb1000.a(uip-icmp6.o)
 .text          0x0000000000000000        0x0 contiki-evb1000.a(uip-ds6.o)
 .data          0x0000000000000000        0x0 contiki-evb1000.a(uip-ds6.o)
 .bss           0x0000000000000000        0x0 contiki-evb1000.a(uip-ds6.o)
 .text.uip_ds6_prefix_rm
                0x0000000000000000        0x8 contiki-evb1000.a(uip-ds6.o)
 .text.uip_ds6_prefix_lookup
                0x0000000000000000       0x2c contiki-evb1000.a(uip-ds6.o)
 .text.uip_ds6_get_global
                0x0000000000000000       0x50 contiki-evb1000.a(uip-ds6.o)
 .text.uip_ds6_maddr_rm
                0x0000000000000000        0x8 contiki-evb1000.a(uip-ds6.o)
 .text.uip_ds6_aaddr_add
                0x0000000000000000       0x50 contiki-evb1000.a(uip-ds6.o)
 .text.uip_ds6_aaddr_rm
                0x0000000000000000        0x8 contiki-evb1000.a(uip-ds6.o)
 .text.uip_ds6_aaddr_lookup
                0x0000000000000000       0x30 contiki-evb1000.a(uip-ds6.o)
 .text.get_match_length
                0x0000000000000000       0x48 contiki-evb1000.a(uip-ds6.o)
 .bss.locaaddr  0x0000000000000000        0x4 contiki-evb1000.a(uip-ds6.o)
 .text          0x0000000000000000        0x0 contiki-evb1000.a(uip-ds6-route.o)
 .data          0x0000000000000000        0x0 contiki-evb1000.a(uip-ds6-route.o)
 .bss           0x0000000000000000        0x0 contiki-evb1000.a(uip-ds6-route.o)
 .text.uip_ds6_notification_add
                0x0000000000000000       0x14 contiki-evb1000.a(uip-ds6-route.o)
 .text.uip_ds6_notification_rm
                0x0000000000000000        0xc contiki-evb1000.a(uip-ds6-route.o)
 .text.uip_ds6_route_num_routes
                0x0000000000000000        0xc contiki-evb1000.a(uip-ds6-route.o)
 .text.uip_ds6_route_rm_by_nexthop
                0x0000000000000000       0x1c contiki-evb1000.a(uip-ds6-route.o)
 .text.uip_ds6_defrt_head
                0x0000000000000000        0xc contiki-evb1000.a(uip-ds6-route.o)
 .text          0x0000000000000000        0x0 contiki-evb1000.a(uip-ds6-nbr.o)
 .data          0x0000000000000000        0x0 contiki-evb1000.a(uip-ds6-nbr.o)
 .bss           0x0000000000000000        0x0 contiki-evb1000.a(uip-ds6-nbr.o)
 .text.uip_ds6_nbr_get_ipaddr
                0x0000000000000000        0x4 contiki-evb1000.a(uip-ds6-nbr.o)
 .text.uip_ds6_nbr_num
                0x0000000000000000       0x28 contiki-evb1000.a(uip-ds6-nbr.o)
 .text.uip_ds6_nbr_ll_lookup
                0x0000000000000000       0x10 contiki-evb1000.a(uip-ds6-nbr.o)
 .text          0x0000000000000000        0x0 contiki-evb1000.a(sicslowpan.o)
 .data          0x0000000000000000        0x0 contiki-evb1000.a(sicslowpan.o)
 .bss           0x0000000000000000        0x0 contiki-evb1000.a(sicslowpan.o)
 .text.rime_sniffer_add
                0x0000000000000000        0xc contiki-evb1000.a(sicslowpan.o)
 .text.rime_sniffer_remove
                0x0000000000000000        0xc contiki-evb1000.a(sicslowpan.o)
 .text.sicslowpan_get_last_rssi
                0x0000000000000000        0xc contiki-evb1000.a(sicslowpan.o)
 .text          0x0000000000000000        0x0 contiki-evb1000.a(uip-debug.o)
 .data          0x0000000000000000        0x0 contiki-evb1000.a(uip-debug.o)
 .bss           0x0000000000000000        0x0 contiki-evb1000.a(uip-debug.o)
 .text          0x0000000000000000        0x0 contiki-evb1000.a(rpl-icmp6.o)
 .data          0x0000000000000000        0x0 contiki-evb1000.a(rpl-icmp6.o)
 .bss           0x0000000000000000        0x0 contiki-evb1000.a(rpl-icmp6.o)
 .text.dao_ack_output
                0x0000000000000000        0x4 contiki-evb1000.a(rpl-icmp6.o)
 .text          0x0000000000000000        0x0 contiki-evb1000.a(rpl-nbr-policy.)
 .data          0x0000000000000000        0x0 contiki-evb1000.a(rpl-nbr-policy.)
 .bss           0x0000000000000000        0x0 contiki-evb1000.a(rpl-nbr-policy.)
 .text.find_removable_dis
                0x0000000000000000       0x20 contiki-evb1000.a(rpl-nbr-policy.)
 .text.find_removable_dao
                0x0000000000000000       0x38 contiki-evb1000.a(rpl-nbr-policy.)
 .text          0x0000000000000000        0x0 contiki-evb1000.a(mac-sequence.o)
 .data          0x0000000000000000        0x0 contiki-evb1000.a(mac-sequence.o)
 .bss           0x0000000000000000        0x0 contiki-evb1000.a(mac-sequence.o)
 .text          0x0000000000000000        0x0 contiki-evb1000.a(csma.o)
 .data          0x0000000000000000        0x0 contiki-evb1000.a(csma.o)
 .bss           0x0000000000000000        0x0 contiki-evb1000.a(csma.o)
 .text          0x0000000000000000        0x0 contiki-evb1000.a(frame802154.o)
 .data          0x0000000000000000        0x0 contiki-evb1000.a(frame802154.o)
 .bss           0x0000000000000000        0x0 contiki-evb1000.a(frame802154.o)
 .text.frame802154_set_pan_id
                0x0000000000000000        0xc contiki-evb1000.a(frame802154.o)
 .text.frame802154_check_dest_panid
                0x0000000000000000       0x3c contiki-evb1000.a(frame802154.o)
 .text.frame802154_extract_linkaddr
                0x0000000000000000       0x94 contiki-evb1000.a(frame802154.o)
 .text          0x0000000000000000        0x0 contiki-evb1000.a(mac.o)
 .data          0x0000000000000000        0x0 contiki-evb1000.a(mac.o)
 .bss           0x0000000000000000        0x0 contiki-evb1000.a(mac.o)
 .text          0x0000000000000000        0x0 contiki-evb1000.a(framer-802154.o)
 .data          0x0000000000000000        0x0 contiki-evb1000.a(framer-802154.o)
 .bss           0x0000000000000000        0x0 contiki-evb1000.a(framer-802154.o)
 .text          0x0000000000000000        0x0 contiki-evb1000.a(stimer.o)
 .data          0x0000000000000000        0x0 contiki-evb1000.a(stimer.o)
 .bss           0x0000000000000000        0x0 contiki-evb1000.a(stimer.o)
 .text.stimer_reset
                0x0000000000000000        0xc contiki-evb1000.a(stimer.o)
 .text.stimer_restart
                0x0000000000000000        0xc contiki-evb1000.a(stimer.o)
 .text.stimer_remaining
                0x0000000000000000       0x10 contiki-evb1000.a(stimer.o)
 .text.stimer_elapsed
                0x0000000000000000       0x10 contiki-evb1000.a(stimer.o)
 .data          0x0000000000000000        0x0 /usr/lib/gcc/arm-none-eabi/6.3.1/thumb/v7-m/libgcc.a(_arm_addsubdf3.o)
 .bss           0x0000000000000000        0x0 /usr/lib/gcc/arm-none-eabi/6.3.1/thumb/v7-m/libgcc.a(_arm_addsubdf3.o)
 .data          0x0000000000000000        0x0 /usr/lib/gcc/arm-none-eabi/6.3.1/thumb/v7-m/libgcc.a(_arm_muldivdf3.o)
 .bss           0x0000000000000000        0x0 /usr/lib/gcc/arm-none-eabi/6.3.1/thumb/v7-m/libgcc.a(_arm_muldivdf3.o)
 .data          0x0000000000000000        0x0 /usr/lib/gcc/arm-none-eabi/6.3.1/thumb/v7-m/libgcc.a(_arm_cmpdf2.o)
 .bss           0x0000000000000000        0x0 /usr/lib/gcc/arm-none-eabi/6.3.1/thumb/v7-m/libgcc.a(_arm_cmpdf2.o)
 .data          0x0000000000000000        0x0 /usr/lib/gcc/arm-none-eabi/6.3.1/thumb/v7-m/libgcc.a(_arm_fixdfsi.o)
 .bss           0x0000000000000000        0x0 /usr/lib/gcc/arm-none-eabi/6.3.1/thumb/v7-m/libgcc.a(_arm_fixdfsi.o)
 .data          0x0000000000000000        0x0 /usr/lib/gcc/arm-none-eabi/6.3.1/thumb/v7-m/libgcc.a(_arm_fixunsdfsi.o)
 .bss           0x0000000000000000        0x0 /usr/lib/gcc/arm-none-eabi/6.3.1/thumb/v7-m/libgcc.a(_arm_fixunsdfsi.o)
 .data          0x0000000000000000        0x0 /usr/lib/gcc/arm-none-eabi/6.3.1/thumb/v7-m/libgcc.a(_arm_truncdfsf2.o)
 .bss           0x0000000000000000        0x0 /usr/lib/gcc/arm-none-eabi/6.3.1/thumb/v7-m/libgcc.a(_arm_truncdfsf2.o)
 .data          0x0000000000000000        0x0 /usr/lib/gcc/arm-none-eabi/6.3.1/thumb/v7-m/libgcc.a(_arm_addsubsf3.o)
 .bss           0x0000000000000000        0x0 /usr/lib/gcc/arm-none-eabi/6.3.1/thumb/v7-m/libgcc.a(_arm_addsubsf3.o)
 .text          0x0000000000000000       0xec /usr/lib/gcc/arm-none-eabi/6.3.1/thumb/v7-m/libgcc.a(_arm_cmpsf2.o)
 .data          0x0000000000000000        0x0 /usr/lib/gcc/arm-none-eabi/6.3.1/thumb/v7-m/libgcc.a(_arm_cmpsf2.o)
 .bss           0x0000000000000000        0x0 /usr/lib/gcc/arm-none-eabi/6.3.1/thumb/v7-m/libgcc.a(_arm_cmpsf2.o)
 .debug_line    0x0000000000000000       0xb2 /usr/lib/gcc/arm-none-eabi/6.3.1/thumb/v7-m/libgcc.a(_arm_cmpsf2.o)
 .debug_info    0x0000000000000000       0xc0 /usr/lib/gcc/arm-none-eabi/6.3.1/thumb/v7-m/libgcc.a(_arm_cmpsf2.o)
 .debug_abbrev  0x0000000000000000       0x14 /usr/lib/gcc/arm-none-eabi/6.3.1/thumb/v7-m/libgcc.a(_arm_cmpsf2.o)
 .debug_aranges
                0x0000000000000000       0x20 /usr/lib/gcc/arm-none-eabi/6.3.1/thumb/v7-m/libgcc.a(_arm_cmpsf2.o)
 .debug_frame   0x0000000000000000       0xc8 /usr/lib/gcc/arm-none-eabi/6.3.1/thumb/v7-m/libgcc.a(_arm_cmpsf2.o)
 .ARM.attributes
                0x0000000000000000       0x1d /usr/lib/gcc/arm-none-eabi/6.3.1/thumb/v7-m/libgcc.a(_arm_cmpsf2.o)
 .data          0x0000000000000000        0x0 /usr/lib/gcc/arm-none-eabi/6.3.1/thumb/v7-m/libgcc.a(_fixdfdi.o)
 .bss           0x0000000000000000        0x0 /usr/lib/gcc/arm-none-eabi/6.3.1/thumb/v7-m/libgcc.a(_fixdfdi.o)
 .data          0x0000000000000000        0x0 /usr/lib/gcc/arm-none-eabi/6.3.1/thumb/v7-m/libgcc.a(_fixunsdfdi.o)
 .bss           0x0000000000000000        0x0 /usr/lib/gcc/arm-none-eabi/6.3.1/thumb/v7-m/libgcc.a(_fixunsdfdi.o)
 .data          0x0000000000000000        0x0 /usr/lib/gcc/arm-none-eabi/6.3.1/../../../arm-none-eabi/lib/libc.a(lib_a-atexit.o)
 .bss           0x0000000000000000        0x0 /usr/lib/gcc/arm-none-eabi/6.3.1/../../../arm-none-eabi/lib/libc.a(lib_a-atexit.o)
 .text          0x0000000000000000       0x34 /usr/lib/gcc/arm-none-eabi/6.3.1/../../../arm-none-eabi/lib/libc.a(lib_a-exit.o)
 .data          0x0000000000000000        0x0 /usr/lib/gcc/arm-none-eabi/6.3.1/../../../arm-none-eabi/lib/libc.a(lib_a-exit.o)
 .bss           0x0000000000000000        0x0 /usr/lib/gcc/arm-none-eabi/6.3.1/../../../arm-none-eabi/lib/libc.a(lib_a-exit.o)
 .debug_info    0x0000000000000000      0x8de /usr/lib/gcc/arm-none-eabi/6.3.1/../../../arm-none-eabi/lib/libc.a(lib_a-exit.o)
 .debug_abbrev  0x0000000000000000      0x1d6 /usr/lib/gcc/arm-none-eabi/6.3.1/../../../arm-none-eabi/lib/libc.a(lib_a-exit.o)
 .debug_loc     0x0000000000000000       0x1e /usr/lib/gcc/arm-none-eabi/6.3.1/../../../arm-none-eabi/lib/libc.a(lib_a-exit.o)
 .debug_aranges
                0x0000000000000000       0x20 /usr/lib/gcc/arm-none-eabi/6.3.1/../../../arm-none-eabi/lib/libc.a(lib_a-exit.o)
 .debug_line    0x0000000000000000      0x15c /usr/lib/gcc/arm-none-eabi/6.3.1/../../../arm-none-eabi/lib/libc.a(lib_a-exit.o)
 .debug_str     0x0000000000000000      0x52e /usr/lib/gcc/arm-none-eabi/6.3.1/../../../arm-none-eabi/lib/libc.a(lib_a-exit.o)
 .comment       0x0000000000000000       0x2c /usr/lib/gcc/arm-none-eabi/6.3.1/../../../arm-none-eabi/lib/libc.a(lib_a-exit.o)
 .debug_frame   0x0000000000000000       0x28 /usr/lib/gcc/arm-none-eabi/6.3.1/../../../arm-none-eabi/lib/libc.a(lib_a-exit.o)
 .ARM.attributes
                0x0000000000000000       0x30 /usr/lib/gcc/arm-none-eabi/6.3.1/../../../arm-none-eabi/lib/libc.a(lib_a-exit.o)
 .data          0x0000000000000000        0x0 /usr/lib/gcc/arm-none-eabi/6.3.1/../../../arm-none-eabi/lib/libc.a(lib_a-fini.o)
 .bss           0x0000000000000000        0x0 /usr/lib/gcc/arm-none-eabi/6.3.1/../../../arm-none-eabi/lib/libc.a(lib_a-fini.o)
 .text          0x0000000000000000        0x0 /usr/lib/gcc/arm-none-eabi/6.3.1/../../../arm-none-eabi/lib/libc.a(lib_a-impure.o)
 .bss           0x0000000000000000        0x0 /usr/lib/gcc/arm-none-eabi/6.3.1/../../../arm-none-eabi/lib/libc.a(lib_a-impure.o)
 .data          0x0000000000000000        0x0 /usr/lib/gcc/arm-none-eabi/6.3.1/../../../arm-none-eabi/lib/libc.a(lib_a-init.o)
 .bss           0x0000000000000000        0x0 /usr/lib/gcc/arm-none-eabi/6.3.1/../../../arm-none-eabi/lib/libc.a(lib_a-init.o)
 .data          0x0000000000000000        0x0 /usr/lib/gcc/arm-none-eabi/6.3.1/../../../arm-none-eabi/lib/libc.a(lib_a-memcmp.o)
 .bss           0x0000000000000000        0x0 /usr/lib/gcc/arm-none-eabi/6.3.1/../../../arm-none-eabi/lib/libc.a(lib_a-memcmp.o)
 .data          0x0000000000000000        0x0 /usr/lib/gcc/arm-none-eabi/6.3.1/../../../arm-none-eabi/lib/libc.a(lib_a-memcpy-stub.o)
 .bss           0x0000000000000000        0x0 /usr/lib/gcc/arm-none-eabi/6.3.1/../../../arm-none-eabi/lib/libc.a(lib_a-memcpy-stub.o)
 .data          0x0000000000000000        0x0 /usr/lib/gcc/arm-none-eabi/6.3.1/../../../arm-none-eabi/lib/libc.a(lib_a-memmove.o)
 .bss           0x0000000000000000        0x0 /usr/lib/gcc/arm-none-eabi/6.3.1/../../../arm-none-eabi/lib/libc.a(lib_a-memmove.o)
 .data          0x0000000000000000        0x0 /usr/lib/gcc/arm-none-eabi/6.3.1/../../../arm-none-eabi/lib/libc.a(lib_a-memset.o)
 .bss           0x0000000000000000        0x0 /usr/lib/gcc/arm-none-eabi/6.3.1/../../../arm-none-eabi/lib/libc.a(lib_a-memset.o)
 .data          0x0000000000000000        0x0 /usr/lib/gcc/arm-none-eabi/6.3.1/../../../arm-none-eabi/lib/libc.a(lib_a-printf.o)
 .bss           0x0000000000000000        0x0 /usr/lib/gcc/arm-none-eabi/6.3.1/../../../arm-none-eabi/lib/libc.a(lib_a-printf.o)
 .data          0x0000000000000000        0x0 /usr/lib/gcc/arm-none-eabi/6.3.1/../../../arm-none-eabi/lib/libc.a(lib_a-putchar.o)
 .bss           0x0000000000000000        0x0 /usr/lib/gcc/arm-none-eabi/6.3.1/../../../arm-none-eabi/lib/libc.a(lib_a-putchar.o)
 .data          0x0000000000000000        0x0 /usr/lib/gcc/arm-none-eabi/6.3.1/../../../arm-none-eabi/lib/libc.a(lib_a-puts.o)
 .bss           0x0000000000000000        0x0 /usr/lib/gcc/arm-none-eabi/6.3.1/../../../arm-none-eabi/lib/libc.a(lib_a-puts.o)
 .data          0x0000000000000000        0x0 /usr/lib/gcc/arm-none-eabi/6.3.1/../../../arm-none-eabi/lib/libc.a(lib_a-rand.o)
 .bss           0x0000000000000000        0x0 /usr/lib/gcc/arm-none-eabi/6.3.1/../../../arm-none-eabi/lib/libc.a(lib_a-rand.o)
 .data          0x0000000000000000        0x0 /usr/lib/gcc/arm-none-eabi/6.3.1/../../../arm-none-eabi/lib/libc.a(lib_a-strlen-stub.o)
 .bss           0x0000000000000000        0x0 /usr/lib/gcc/arm-none-eabi/6.3.1/../../../arm-none-eabi/lib/libc.a(lib_a-strlen-stub.o)
 .data          0x0000000000000000        0x0 /usr/lib/gcc/arm-none-eabi/6.3.1/../../../arm-none-eabi/lib/libc.a(lib_a-vfprintf.o)
 .bss           0x0000000000000000        0x0 /usr/lib/gcc/arm-none-eabi/6.3.1/../../../arm-none-eabi/lib/libc.a(lib_a-vfprintf.o)
 .data          0x0000000000000000        0x0 /usr/lib/gcc/arm-none-eabi/6.3.1/../../../arm-none-eabi/lib/libc.a(lib_a-wsetup.o)
 .bss           0x0000000000000000        0x0 /usr/lib/gcc/arm-none-eabi/6.3.1/../../../arm-none-eabi/lib/libc.a(lib_a-wsetup.o)
 .data          0x0000000000000000        0x0 /usr/lib/gcc/arm-none-eabi/6.3.1/../../../arm-none-eabi/lib/libc.a(lib_a-__atexit.o)
 .bss           0x0000000000000000        0x0 /usr/lib/gcc/arm-none-eabi/6.3.1/../../../arm-none-eabi/lib/libc.a(lib_a-__atexit.o)
 .text          0x0000000000000000      0x170 /usr/lib/gcc/arm-none-eabi/6.3.1/../../../arm-none-eabi/lib/libc.a(lib_a-__call_atexit.o)
 .data          0x0000000000000000        0x0 /usr/lib/gcc/arm-none-eabi/6.3.1/../../../arm-none-eabi/lib/libc.a(lib_a-__call_atexit.o)
 .bss           0x0000000000000000        0x0 /usr/lib/gcc/arm-none-eabi/6.3.1/../../../arm-none-eabi/lib/libc.a(lib_a-__call_atexit.o)
 .data          0x0000000000000000        0x0 /usr/lib/gcc/arm-none-eabi/6.3.1/../../../arm-none-eabi/lib/libc.a(lib_a-dtoa.o)
 .bss           0x0000000000000000        0x0 /usr/lib/gcc/arm-none-eabi/6.3.1/../../../arm-none-eabi/lib/libc.a(lib_a-dtoa.o)
 .data          0x0000000000000000        0x0 /usr/lib/gcc/arm-none-eabi/6.3.1/../../../arm-none-eabi/lib/libc.a(lib_a-fflush.o)
 .bss           0x0000000000000000        0x0 /usr/lib/gcc/arm-none-eabi/6.3.1/../../../arm-none-eabi/lib/libc.a(lib_a-fflush.o)
 .data          0x0000000000000000        0x0 /usr/lib/gcc/arm-none-eabi/6.3.1/../../../arm-none-eabi/lib/libc.a(lib_a-findfp.o)
 .bss           0x0000000000000000        0x0 /usr/lib/gcc/arm-none-eabi/6.3.1/../../../arm-none-eabi/lib/libc.a(lib_a-findfp.o)
 .data          0x0000000000000000        0x0 /usr/lib/gcc/arm-none-eabi/6.3.1/../../../arm-none-eabi/lib/libc.a(lib_a-freer.o)
 .bss           0x0000000000000000        0x0 /usr/lib/gcc/arm-none-eabi/6.3.1/../../../arm-none-eabi/lib/libc.a(lib_a-freer.o)
 .data          0x0000000000000000        0x0 /usr/lib/gcc/arm-none-eabi/6.3.1/../../../arm-none-eabi/lib/libc.a(lib_a-fvwrite.o)
 .bss           0x0000000000000000        0x0 /usr/lib/gcc/arm-none-eabi/6.3.1/../../../arm-none-eabi/lib/libc.a(lib_a-fvwrite.o)
 .data          0x0000000000000000        0x0 /usr/lib/gcc/arm-none-eabi/6.3.1/../../../arm-none-eabi/lib/libc.a(lib_a-fwalk.o)
 .bss           0x0000000000000000        0x0 /usr/lib/gcc/arm-none-eabi/6.3.1/../../../arm-none-eabi/lib/libc.a(lib_a-fwalk.o)
 .bss           0x0000000000000000        0xc /usr/lib/gcc/arm-none-eabi/6.3.1/../../../arm-none-eabi/lib/libc.a(lib_a-locale.o)
 .data          0x0000000000000000        0x0 /usr/lib/gcc/arm-none-eabi/6.3.1/../../../arm-none-eabi/lib/libc.a(lib_a-makebuf.o)
 .bss           0x0000000000000000        0x0 /usr/lib/gcc/arm-none-eabi/6.3.1/../../../arm-none-eabi/lib/libc.a(lib_a-makebuf.o)
 .data          0x0000000000000000        0x0 /usr/lib/gcc/arm-none-eabi/6.3.1/../../../arm-none-eabi/lib/libc.a(lib_a-memchr-stub.o)
 .bss           0x0000000000000000        0x0 /usr/lib/gcc/arm-none-eabi/6.3.1/../../../arm-none-eabi/lib/libc.a(lib_a-memchr-stub.o)
 .data          0x0000000000000000        0x0 /usr/lib/gcc/arm-none-eabi/6.3.1/../../../arm-none-eabi/lib/libc.a(lib_a-mlock.o)
 .bss           0x0000000000000000        0x0 /usr/lib/gcc/arm-none-eabi/6.3.1/../../../arm-none-eabi/lib/libc.a(lib_a-mlock.o)
 .data          0x0000000000000000        0x0 /usr/lib/gcc/arm-none-eabi/6.3.1/../../../arm-none-eabi/lib/libc.a(lib_a-mprec.o)
 .bss           0x0000000000000000        0x0 /usr/lib/gcc/arm-none-eabi/6.3.1/../../../arm-none-eabi/lib/libc.a(lib_a-mprec.o)
 .data          0x0000000000000000        0x0 /usr/lib/gcc/arm-none-eabi/6.3.1/../../../arm-none-eabi/lib/libc.a(lib_a-putc.o)
 .bss           0x0000000000000000        0x0 /usr/lib/gcc/arm-none-eabi/6.3.1/../../../arm-none-eabi/lib/libc.a(lib_a-putc.o)
 .data          0x0000000000000000        0x0 /usr/lib/gcc/arm-none-eabi/6.3.1/../../../arm-none-eabi/lib/libc.a(lib_a-reallocr.o)
 .bss           0x0000000000000000        0x0 /usr/lib/gcc/arm-none-eabi/6.3.1/../../../arm-none-eabi/lib/libc.a(lib_a-reallocr.o)
 .data          0x0000000000000000        0x0 /usr/lib/gcc/arm-none-eabi/6.3.1/../../../arm-none-eabi/lib/libc.a(lib_a-sbrkr.o)
 .bss           0x0000000000000000        0x0 /usr/lib/gcc/arm-none-eabi/6.3.1/../../../arm-none-eabi/lib/libc.a(lib_a-sbrkr.o)
 .data          0x0000000000000000        0x0 /usr/lib/gcc/arm-none-eabi/6.3.1/../../../arm-none-eabi/lib/libc.a(lib_a-stdio.o)
 .bss           0x0000000000000000        0x0 /usr/lib/gcc/arm-none-eabi/6.3.1/../../../arm-none-eabi/lib/libc.a(lib_a-stdio.o)
 .data          0x0000000000000000        0x0 /usr/lib/gcc/arm-none-eabi/6.3.1/../../../arm-none-eabi/lib/libc.a(lib_a-strcmp.o)
 .bss           0x0000000000000000        0x0 /usr/lib/gcc/arm-none-eabi/6.3.1/../../../arm-none-eabi/lib/libc.a(lib_a-strcmp.o)
 .data          0x0000000000000000        0x0 /usr/lib/gcc/arm-none-eabi/6.3.1/../../../arm-none-eabi/lib/libc.a(lib_a-vfiprintf.o)
 .bss           0x0000000000000000        0x0 /usr/lib/gcc/arm-none-eabi/6.3.1/../../../arm-none-eabi/lib/libc.a(lib_a-vfiprintf.o)
 .data          0x0000000000000000        0x0 /usr/lib/gcc/arm-none-eabi/6.3.1/../../../arm-none-eabi/lib/libc.a(lib_a-wbuf.o)
 .bss           0x0000000000000000        0x0 /usr/lib/gcc/arm-none-eabi/6.3.1/../../../arm-none-eabi/lib/libc.a(lib_a-wbuf.o)
 .data          0x0000000000000000        0x0 /usr/lib/gcc/arm-none-eabi/6.3.1/../../../arm-none-eabi/lib/libc.a(lib_a-writer.o)
 .bss           0x0000000000000000        0x0 /usr/lib/gcc/arm-none-eabi/6.3.1/../../../arm-none-eabi/lib/libc.a(lib_a-writer.o)
 .data          0x0000000000000000        0x0 /usr/lib/gcc/arm-none-eabi/6.3.1/../../../arm-none-eabi/lib/libc.a(lib_a-callocr.o)
 .bss           0x0000000000000000        0x0 /usr/lib/gcc/arm-none-eabi/6.3.1/../../../arm-none-eabi/lib/libc.a(lib_a-callocr.o)
 .data          0x0000000000000000        0x0 /usr/lib/gcc/arm-none-eabi/6.3.1/../../../arm-none-eabi/lib/libc.a(lib_a-closer.o)
 .bss           0x0000000000000000        0x0 /usr/lib/gcc/arm-none-eabi/6.3.1/../../../arm-none-eabi/lib/libc.a(lib_a-closer.o)
 .data          0x0000000000000000        0x0 /usr/lib/gcc/arm-none-eabi/6.3.1/../../../arm-none-eabi/lib/libc.a(lib_a-fclose.o)
 .bss           0x0000000000000000        0x0 /usr/lib/gcc/arm-none-eabi/6.3.1/../../../arm-none-eabi/lib/libc.a(lib_a-fclose.o)
 .data          0x0000000000000000        0x0 /usr/lib/gcc/arm-none-eabi/6.3.1/../../../arm-none-eabi/lib/libc.a(lib_a-fputwc.o)
 .bss           0x0000000000000000        0x0 /usr/lib/gcc/arm-none-eabi/6.3.1/../../../arm-none-eabi/lib/libc.a(lib_a-fputwc.o)
 .data          0x0000000000000000        0x0 /usr/lib/gcc/arm-none-eabi/6.3.1/../../../arm-none-eabi/lib/libc.a(lib_a-fstatr.o)
 .bss           0x0000000000000000        0x0 /usr/lib/gcc/arm-none-eabi/6.3.1/../../../arm-none-eabi/lib/libc.a(lib_a-fstatr.o)
 .data          0x0000000000000000        0x0 /usr/lib/gcc/arm-none-eabi/6.3.1/../../../arm-none-eabi/lib/libc.a(lib_a-isattyr.o)
 .bss           0x0000000000000000        0x0 /usr/lib/gcc/arm-none-eabi/6.3.1/../../../arm-none-eabi/lib/libc.a(lib_a-isattyr.o)
 .data          0x0000000000000000        0x0 /usr/lib/gcc/arm-none-eabi/6.3.1/../../../arm-none-eabi/lib/libc.a(lib_a-lseekr.o)
 .bss           0x0000000000000000        0x0 /usr/lib/gcc/arm-none-eabi/6.3.1/../../../arm-none-eabi/lib/libc.a(lib_a-lseekr.o)
 .data          0x0000000000000000        0x0 /usr/lib/gcc/arm-none-eabi/6.3.1/../../../arm-none-eabi/lib/libc.a(lib_a-readr.o)
 .bss           0x0000000000000000        0x0 /usr/lib/gcc/arm-none-eabi/6.3.1/../../../arm-none-eabi/lib/libc.a(lib_a-readr.o)
 .text          0x0000000000000000      0x120 /usr/lib/gcc/arm-none-eabi/6.3.1/../../../arm-none-eabi/lib/libc.a(lib_a-reent.o)
 .data          0x0000000000000000        0x0 /usr/lib/gcc/arm-none-eabi/6.3.1/../../../arm-none-eabi/lib/libc.a(lib_a-reent.o)
 .bss           0x0000000000000000        0x0 /usr/lib/gcc/arm-none-eabi/6.3.1/../../../arm-none-eabi/lib/libc.a(lib_a-reent.o)
 .data          0x0000000000000000        0x0 /usr/lib/gcc/arm-none-eabi/6.3.1/../../../arm-none-eabi/lib/libc.a(lib_a-wcrtomb.o)
 .bss           0x0000000000000000        0x0 /usr/lib/gcc/arm-none-eabi/6.3.1/../../../arm-none-eabi/lib/libc.a(lib_a-wcrtomb.o)
 .bss           0x0000000000000000        0x0 /usr/lib/gcc/arm-none-eabi/6.3.1/../../../arm-none-eabi/lib/libc.a(lib_a-wctomb_r.o)
 .data          0x0000000000000000        0x0 /usr/lib/gcc/arm-none-eabi/6.3.1/thumb/v7-m/libgcc.a(_udivsi3.o)
 .bss           0x0000000000000000        0x0 /usr/lib/gcc/arm-none-eabi/6.3.1/thumb/v7-m/libgcc.a(_udivsi3.o)
 .data          0x0000000000000000        0x0 /usr/lib/gcc/arm-none-eabi/6.3.1/thumb/v7-m/libgcc.a(_divsi3.o)
 .bss           0x0000000000000000        0x0 /usr/lib/gcc/arm-none-eabi/6.3.1/thumb/v7-m/libgcc.a(_divsi3.o)
 .data          0x0000000000000000        0x0 /usr/lib/gcc/arm-none-eabi/6.3.1/thumb/v7-m/libgcc.a(_dvmd_tls.o)
 .bss           0x0000000000000000        0x0 /usr/lib/gcc/arm-none-eabi/6.3.1/thumb/v7-m/libgcc.a(_dvmd_tls.o)
 .data          0x0000000000000000        0x0 /usr/lib/gcc/arm-none-eabi/6.3.1/thumb/v7-m/libgcc.a(_arm_unorddf2.o)
 .bss           0x0000000000000000        0x0 /usr/lib/gcc/arm-none-eabi/6.3.1/thumb/v7-m/libgcc.a(_arm_unorddf2.o)
 .data          0x0000000000000000        0x0 /usr/lib/gcc/arm-none-eabi/6.3.1/thumb/v7-m/libgcc.a(_aeabi_uldivmod.o)
 .bss           0x0000000000000000        0x0 /usr/lib/gcc/arm-none-eabi/6.3.1/thumb/v7-m/libgcc.a(_aeabi_uldivmod.o)
 .data          0x0000000000000000        0x0 /usr/lib/gcc/arm-none-eabi/6.3.1/thumb/v7-m/libgcc.a(_udivmoddi4.o)
 .bss           0x0000000000000000        0x0 /usr/lib/gcc/arm-none-eabi/6.3.1/thumb/v7-m/libgcc.a(_udivmoddi4.o)
 .ARM.extab     0x0000000000000000        0x0 /usr/lib/gcc/arm-none-eabi/6.3.1/thumb/v7-m/libgcc.a(_udivmoddi4.o)
 .text          0x0000000000000000        0x0 /usr/lib/gcc/arm-none-eabi/6.3.1/thumb/v7-m/crtend.o
 .data          0x0000000000000000        0x0 /usr/lib/gcc/arm-none-eabi/6.3.1/thumb/v7-m/crtend.o
 .bss           0x0000000000000000        0x0 /usr/lib/gcc/arm-none-eabi/6.3.1/thumb/v7-m/crtend.o
 .eh_frame      0x0000000000000000        0x4 /usr/lib/gcc/arm-none-eabi/6.3.1/thumb/v7-m/crtend.o
 .jcr           0x0000000000000000        0x4 /usr/lib/gcc/arm-none-eabi/6.3.1/thumb/v7-m/crtend.o
 .text          0x0000000000000000        0x0 /usr/lib/gcc/arm-none-eabi/6.3.1/thumb/v7-m/crtn.o
 .data          0x0000000000000000        0x0 /usr/lib/gcc/arm-none-eabi/6.3.1/thumb/v7-m/crtn.o
 .bss           0x0000000000000000        0x0 /usr/lib/gcc/arm-none-eabi/6.3.1/thumb/v7-m/crtn.o

Memory Configuration

Name             Origin             Length             Attributes
FLASH            0x0000000008000000 0x0000000000040000 xr
RAM              0x0000000020000000 0x0000000000010000 xrw
MEMORY_B1        0x0000000060000000 0x0000000000000000 xr
*default*        0x0000000000000000 0xffffffffffffffff

Linker script and memory map

LOAD /usr/lib/gcc/arm-none-eabi/6.3.1/thumb/v7-m/crti.o
LOAD /usr/lib/gcc/arm-none-eabi/6.3.1/thumb/v7-m/crtbegin.o
LOAD /usr/lib/gcc/arm-none-eabi/6.3.1/../../../arm-none-eabi/lib/crt0.o
LOAD /usr/lib/gcc/arm-none-eabi/6.3.1/../../../arm-none-eabi/lib/libm.a
LOAD /tmp/cc6EDpDG.o
LOAD hello-world.co
LOAD obj_evb1000/contiki-main.o
LOAD obj_evb1000/board.o
LOAD obj_evb1000/leds-arch.o
LOAD obj_evb1000/lcd.o
LOAD obj_evb1000/stm32f10x_it.o
LOAD obj_evb1000/syscalls.o
LOAD obj_evb1000/dw1000-arch.o
LOAD obj_evb1000/deca_device.o
LOAD obj_evb1000/deca_params_init.o
LOAD obj_evb1000/deca_range_tables.o
LOAD obj_evb1000/dw1000.o
LOAD obj_evb1000/dw1000-ranging.o
LOAD obj_evb1000/tdoa_decadriver.o
LOAD obj_evb1000/uwb.o
LOAD obj_evb1000/uwb_tdoa_anchor3.o
LOAD obj_evb1000/system_stm32f10x.o
LOAD obj_evb1000/core_cm3.o
LOAD obj_evb1000/misc.o
LOAD obj_evb1000/stm32f10x_cec.o
LOAD obj_evb1000/stm32f10x_dma.o
LOAD obj_evb1000/stm32f10x_gpio.o
LOAD obj_evb1000/stm32f10x_rcc.o
LOAD obj_evb1000/stm32f10x_tim.o
LOAD obj_evb1000/stm32f10x_adc.o
LOAD obj_evb1000/stm32f10x_crc.o
LOAD obj_evb1000/stm32f10x_exti.o
LOAD obj_evb1000/stm32f10x_i2c.o
LOAD obj_evb1000/stm32f10x_rtc.o
LOAD obj_evb1000/stm32f10x_usart.o
LOAD obj_evb1000/stm32f10x_bkp.o
LOAD obj_evb1000/stm32f10x_dac.o
LOAD obj_evb1000/stm32f10x_flash.o
LOAD obj_evb1000/stm32f10x_iwdg.o
LOAD obj_evb1000/stm32f10x_sdio.o
LOAD obj_evb1000/stm32f10x_wwdg.o
LOAD obj_evb1000/stm32f10x_can.o
LOAD obj_evb1000/stm32f10x_dbgmcu.o
LOAD obj_evb1000/stm32f10x_fsmc.o
LOAD obj_evb1000/stm32f10x_pwr.o
LOAD obj_evb1000/stm32f10x_spi.o
LOAD obj_evb1000/usbd_core.o
LOAD obj_evb1000/usbd_ioreq.o
LOAD obj_evb1000/usbd_req.o
LOAD obj_evb1000/usbd_cdc_core.o
LOAD obj_evb1000/deca_usb.o
LOAD obj_evb1000/deca_usb_bsp_evk1000.o
LOAD obj_evb1000/usbd_desc.o
LOAD obj_evb1000/usbd_usr.o
LOAD obj_evb1000/usb_core.o
LOAD obj_evb1000/usb_dcd_int.o
LOAD obj_evb1000/usb_dcd.o
LOAD obj_evb1000/clock.o
LOAD obj_evb1000/watchdog.o
LOAD obj_evb1000/rtimer-arch.o
LOAD obj_evb1000/spix.o
LOAD contiki-evb1000.a
START GROUP
LOAD /usr/lib/gcc/arm-none-eabi/6.3.1/thumb/v7-m/libgcc.a
LOAD /usr/lib/gcc/arm-none-eabi/6.3.1/../../../arm-none-eabi/lib/libc.a
END GROUP
LOAD /usr/lib/gcc/arm-none-eabi/6.3.1/thumb/v7-m/crtend.o
LOAD /usr/lib/gcc/arm-none-eabi/6.3.1/thumb/v7-m/crtn.o
                0x0000000020010000                _estack = 0x20010000
                0x0000000000000400                _Min_Heap_Size = 0x400
                0x0000000000000400                _Min_Stack_Size = 0x400

.isr_vector     0x0000000008000000      0x1e4
                0x0000000008000000                . = ALIGN (0x4)
 *(.isr_vector)
 .isr_vector    0x0000000008000000      0x1e4 /tmp/cc6EDpDG.o
                0x0000000008000000                g_pfnVectors
                0x00000000080001e4                . = ALIGN (0x4)

.text           0x00000000080001e8    0x17f88
                0x00000000080001e8                . = ALIGN (0x4)
 *(.text)
 .text          0x00000000080001e8       0xa4 /usr/lib/gcc/arm-none-eabi/6.3.1/thumb/v7-m/crtbegin.o
 .text          0x000000000800028c      0x370 /usr/lib/gcc/arm-none-eabi/6.3.1/thumb/v7-m/libgcc.a(_arm_addsubdf3.o)
                0x000000000800028c                __aeabi_drsub
                0x0000000008000294                __aeabi_dsub
                0x0000000008000294                __subdf3
                0x0000000008000298                __adddf3
                0x0000000008000298                __aeabi_dadd
                0x0000000008000510                __aeabi_ui2d
                0x0000000008000510                __floatunsidf
                0x0000000008000530                __floatsidf
                0x0000000008000530                __aeabi_i2d
                0x0000000008000554                __extendsfdf2
                0x0000000008000554                __aeabi_f2d
                0x0000000008000590                __aeabi_ul2d
                0x0000000008000590                __floatundidf
                0x00000000080005a0                __floatdidf
                0x00000000080005a0                __aeabi_l2d
 .text          0x00000000080005fc      0x424 /usr/lib/gcc/arm-none-eabi/6.3.1/thumb/v7-m/libgcc.a(_arm_muldivdf3.o)
                0x00000000080005fc                __aeabi_dmul
                0x00000000080005fc                __muldf3
                0x0000000008000850                __aeabi_ddiv
                0x0000000008000850                __divdf3
 .text          0x0000000008000a20      0x110 /usr/lib/gcc/arm-none-eabi/6.3.1/thumb/v7-m/libgcc.a(_arm_cmpdf2.o)
                0x0000000008000a20                __gtdf2
                0x0000000008000a20                __gedf2
                0x0000000008000a28                __ltdf2
                0x0000000008000a28                __ledf2
                0x0000000008000a30                __cmpdf2
                0x0000000008000a30                __eqdf2
                0x0000000008000a30                __nedf2
                0x0000000008000aac                __aeabi_cdrcmple
                0x0000000008000abc                __aeabi_cdcmple
                0x0000000008000abc                __aeabi_cdcmpeq
                0x0000000008000acc                __aeabi_dcmpeq
                0x0000000008000ae0                __aeabi_dcmplt
                0x0000000008000af4                __aeabi_dcmple
                0x0000000008000b08                __aeabi_dcmpge
                0x0000000008000b1c                __aeabi_dcmpgt
 .text          0x0000000008000b30       0x50 /usr/lib/gcc/arm-none-eabi/6.3.1/thumb/v7-m/libgcc.a(_arm_fixdfsi.o)
                0x0000000008000b30                __fixdfsi
                0x0000000008000b30                __aeabi_d2iz
 .text          0x0000000008000b80       0x40 /usr/lib/gcc/arm-none-eabi/6.3.1/thumb/v7-m/libgcc.a(_arm_fixunsdfsi.o)
                0x0000000008000b80                __fixunsdfsi
                0x0000000008000b80                __aeabi_d2uiz
 .text          0x0000000008000bc0       0xa0 /usr/lib/gcc/arm-none-eabi/6.3.1/thumb/v7-m/libgcc.a(_arm_truncdfsf2.o)
                0x0000000008000bc0                __aeabi_d2f
                0x0000000008000bc0                __truncdfsf2
 .text          0x0000000008000c60      0x21c /usr/lib/gcc/arm-none-eabi/6.3.1/thumb/v7-m/libgcc.a(_arm_addsubsf3.o)
                0x0000000008000c60                __aeabi_frsub
                0x0000000008000c68                __subsf3
                0x0000000008000c68                __aeabi_fsub
                0x0000000008000c6c                __aeabi_fadd
                0x0000000008000c6c                __addsf3
                0x0000000008000dcc                __aeabi_ui2f
                0x0000000008000dcc                __floatunsisf
                0x0000000008000dd4                __aeabi_i2f
                0x0000000008000dd4                __floatsisf
                0x0000000008000df0                __floatundisf
                0x0000000008000df0                __aeabi_ul2f
                0x0000000008000e00                __floatdisf
                0x0000000008000e00                __aeabi_l2f
 .text          0x0000000008000e7c       0x30 /usr/lib/gcc/arm-none-eabi/6.3.1/thumb/v7-m/libgcc.a(_fixdfdi.o)
                0x0000000008000e7c                __aeabi_d2lz
                0x0000000008000e7c                __fixdfdi
 .text          0x0000000008000eac       0x48 /usr/lib/gcc/arm-none-eabi/6.3.1/thumb/v7-m/libgcc.a(_fixunsdfdi.o)
                0x0000000008000eac                __aeabi_d2ulz
                0x0000000008000eac                __fixunsdfdi
 .text          0x0000000008000ef4       0x20 /usr/lib/gcc/arm-none-eabi/6.3.1/../../../arm-none-eabi/lib/libc.a(lib_a-atexit.o)
                0x0000000008000ef4                atexit
 .text          0x0000000008000f14       0x44 /usr/lib/gcc/arm-none-eabi/6.3.1/../../../arm-none-eabi/lib/libc.a(lib_a-fini.o)
                0x0000000008000f14                __libc_fini_array
 .text          0x0000000008000f58       0x80 /usr/lib/gcc/arm-none-eabi/6.3.1/../../../arm-none-eabi/lib/libc.a(lib_a-init.o)
                0x0000000008000f58                __libc_init_array
 .text          0x0000000008000fd8       0xb0 /usr/lib/gcc/arm-none-eabi/6.3.1/../../../arm-none-eabi/lib/libc.a(lib_a-memcmp.o)
                0x0000000008000fd8                memcmp
 .text          0x0000000008001088       0xf0 /usr/lib/gcc/arm-none-eabi/6.3.1/../../../arm-none-eabi/lib/libc.a(lib_a-memcpy-stub.o)
                0x0000000008001088                memcpy
 .text          0x0000000008001178      0x12c /usr/lib/gcc/arm-none-eabi/6.3.1/../../../arm-none-eabi/lib/libc.a(lib_a-memmove.o)
                0x0000000008001178                memmove
 .text          0x00000000080012a4       0xf4 /usr/lib/gcc/arm-none-eabi/6.3.1/../../../arm-none-eabi/lib/libc.a(lib_a-memset.o)
                0x00000000080012a4                memset
 .text          0x0000000008001398       0x74 /usr/lib/gcc/arm-none-eabi/6.3.1/../../../arm-none-eabi/lib/libc.a(lib_a-printf.o)
                0x0000000008001398                _printf_r
                0x00000000080013cc                printf
 .text          0x000000000800140c       0x3c /usr/lib/gcc/arm-none-eabi/6.3.1/../../../arm-none-eabi/lib/libc.a(lib_a-putchar.o)
                0x000000000800140c                _putchar_r
                0x0000000008001420                putchar
 .text          0x0000000008001448       0xc0 /usr/lib/gcc/arm-none-eabi/6.3.1/../../../arm-none-eabi/lib/libc.a(lib_a-puts.o)
                0x0000000008001448                _puts_r
                0x00000000080014f4                puts
 .text          0x0000000008001508       0x70 /usr/lib/gcc/arm-none-eabi/6.3.1/../../../arm-none-eabi/lib/libc.a(lib_a-rand.o)
                0x0000000008001508                srand
                0x0000000008001524                rand
 .text          0x0000000008001578       0x60 /usr/lib/gcc/arm-none-eabi/6.3.1/../../../arm-none-eabi/lib/libc.a(lib_a-strlen-stub.o)
                0x0000000008001578                strlen
 .text          0x00000000080015d8     0x239c /usr/lib/gcc/arm-none-eabi/6.3.1/../../../arm-none-eabi/lib/libc.a(lib_a-vfprintf.o)
                0x00000000080015d8                _vfprintf_r
                0x00000000080038ac                vfprintf
 .text          0x0000000008003974      0x164 /usr/lib/gcc/arm-none-eabi/6.3.1/../../../arm-none-eabi/lib/libc.a(lib_a-wsetup.o)
                0x0000000008003974                __swsetup_r
 .text          0x0000000008003ad8       0xe0 /usr/lib/gcc/arm-none-eabi/6.3.1/../../../arm-none-eabi/lib/libc.a(lib_a-__atexit.o)
                0x0000000008003ad8                __register_exitproc
 .text          0x0000000008003bb8     0x18b8 /usr/lib/gcc/arm-none-eabi/6.3.1/../../../arm-none-eabi/lib/libc.a(lib_a-dtoa.o)
                0x0000000008003d90                _dtoa_r
 .text          0x0000000008005470      0x2cc /usr/lib/gcc/arm-none-eabi/6.3.1/../../../arm-none-eabi/lib/libc.a(lib_a-fflush.o)
                0x0000000008005470                __sflush_r
                0x00000000080056b0                _fflush_r
                0x0000000008005704                fflush
 .text          0x000000000800573c      0x350 /usr/lib/gcc/arm-none-eabi/6.3.1/../../../arm-none-eabi/lib/libc.a(lib_a-findfp.o)
                0x0000000008005744                _cleanup_r
                0x00000000080058c4                __sfmoreglue
                0x0000000008005914                __sfp
                0x0000000008005a00                _cleanup
                0x0000000008005a24                __sinit
                0x0000000008005a34                __sfp_lock_acquire
                0x0000000008005a38                __sfp_lock_release
                0x0000000008005a3c                __sinit_lock_acquire
                0x0000000008005a40                __sinit_lock_release
                0x0000000008005a44                __fp_lock_all
                0x0000000008005a68                __fp_unlock_all
 .text          0x0000000008005a8c      0x3ec /usr/lib/gcc/arm-none-eabi/6.3.1/../../../arm-none-eabi/lib/libc.a(lib_a-freer.o)
                0x0000000008005a8c                _malloc_trim_r
                0x0000000008005b8c                _free_r
 .text          0x0000000008005e78      0x4c8 /usr/lib/gcc/arm-none-eabi/6.3.1/../../../arm-none-eabi/lib/libc.a(lib_a-fvwrite.o)
                0x0000000008005e78                __sfvwrite_r
 .text          0x0000000008006340      0x110 /usr/lib/gcc/arm-none-eabi/6.3.1/../../../arm-none-eabi/lib/libc.a(lib_a-fwalk.o)
                0x0000000008006340                _fwalk
                0x00000000080063c4                _fwalk_reent
 .text          0x0000000008006450       0xd4 /usr/lib/gcc/arm-none-eabi/6.3.1/../../../arm-none-eabi/lib/libc.a(lib_a-locale.o)
                0x0000000008006450                _setlocale_r
                0x00000000080064c4                __locale_charset
                0x00000000080064d0                __locale_mb_cur_max
                0x00000000080064e0                __locale_msgcharset
                0x00000000080064ec                __locale_cjk_lang
                0x00000000080064f4                _localeconv_r
                0x0000000008006500                setlocale
                0x0000000008006518                localeconv
 .text          0x0000000008006524      0x17c /usr/lib/gcc/arm-none-eabi/6.3.1/../../../arm-none-eabi/lib/libc.a(lib_a-makebuf.o)
                0x0000000008006524                __swhatbuf_r
                0x00000000080065b8                __smakebuf_r
 .text          0x00000000080066a0      0x778 /usr/lib/gcc/arm-none-eabi/6.3.1/../../../arm-none-eabi/lib/libc.a(lib_a-mallocr.o)
                0x00000000080066a0                _malloc_r
 .text          0x0000000008006e18      0x114 /usr/lib/gcc/arm-none-eabi/6.3.1/../../../arm-none-eabi/lib/libc.a(lib_a-memchr-stub.o)
                0x0000000008006e18                memchr
 .text          0x0000000008006f2c        0x8 /usr/lib/gcc/arm-none-eabi/6.3.1/../../../arm-none-eabi/lib/libc.a(lib_a-mlock.o)
                0x0000000008006f2c                __malloc_lock
                0x0000000008006f30                __malloc_unlock
 .text          0x0000000008006f34      0xdcc /usr/lib/gcc/arm-none-eabi/6.3.1/../../../arm-none-eabi/lib/libc.a(lib_a-mprec.o)
                0x0000000008006f34                _Balloc
                0x0000000008006fc4                _Bfree
                0x0000000008006fe0                __multadd
                0x00000000080070bc                __s2b
                0x00000000080071a4                __hi0bits
                0x0000000008007200                __lo0bits
                0x0000000008007294                __i2b
                0x00000000080072b8                __multiply
                0x00000000080074a8                __pow5mult
                0x00000000080075ac                __lshift
                0x00000000080076a0                __mcmp
                0x0000000008007704                __mdiff
                0x00000000080078b4                __ulp
                0x000000000800791c                __b2d
                0x0000000008007a14                __d2b
                0x0000000008007b20                __ratio
                0x0000000008007bb8                _mprec_log10
                0x0000000008007c10                __copybits
                0x0000000008007c80                __any_on
 .text          0x0000000008007d00      0x110 /usr/lib/gcc/arm-none-eabi/6.3.1/../../../arm-none-eabi/lib/libc.a(lib_a-putc.o)
                0x0000000008007d00                _putc_r
                0x0000000008007d80                putc
 .text          0x0000000008007e10      0x580 /usr/lib/gcc/arm-none-eabi/6.3.1/../../../arm-none-eabi/lib/libc.a(lib_a-reallocr.o)
                0x0000000008007e10                _realloc_r
 .text          0x0000000008008390       0x44 /usr/lib/gcc/arm-none-eabi/6.3.1/../../../arm-none-eabi/lib/libc.a(lib_a-sbrkr.o)
                0x0000000008008390                _sbrk_r
 .text          0x00000000080083d4       0xd8 /usr/lib/gcc/arm-none-eabi/6.3.1/../../../arm-none-eabi/lib/libc.a(lib_a-stdio.o)
                0x00000000080083d4                __sread
                0x0000000008008408                __seofread
                0x0000000008008410                __swrite
                0x0000000008008468                __sseek
                0x0000000008008498                __sclose
 .text          0x00000000080084ac      0x224 /usr/lib/gcc/arm-none-eabi/6.3.1/../../../arm-none-eabi/lib/libc.a(lib_a-strcmp.o)
                0x00000000080084ac                strcmp
 .text          0x00000000080086d0     0x16ec /usr/lib/gcc/arm-none-eabi/6.3.1/../../../arm-none-eabi/lib/libc.a(lib_a-vfiprintf.o)
                0x000000000800877c                __sprint_r
                0x0000000008008794                _vfiprintf_r
                0x0000000008009cf4                vfiprintf
 .text          0x0000000008009dbc      0x148 /usr/lib/gcc/arm-none-eabi/6.3.1/../../../arm-none-eabi/lib/libc.a(lib_a-wbuf.o)
                0x0000000008009dbc                __swbuf_r
                0x0000000008009eec                __swbuf
 .text          0x0000000008009f04       0x48 /usr/lib/gcc/arm-none-eabi/6.3.1/../../../arm-none-eabi/lib/libc.a(lib_a-writer.o)
                0x0000000008009f04                _write_r
 .text          0x0000000008009f4c       0x98 /usr/lib/gcc/arm-none-eabi/6.3.1/../../../arm-none-eabi/lib/libc.a(lib_a-callocr.o)
                0x0000000008009f4c                _calloc_r
 .text          0x0000000008009fe4       0x3c /usr/lib/gcc/arm-none-eabi/6.3.1/../../../arm-none-eabi/lib/libc.a(lib_a-closer.o)
                0x0000000008009fe4                _close_r
 .text          0x000000000800a020      0x110 /usr/lib/gcc/arm-none-eabi/6.3.1/../../../arm-none-eabi/lib/libc.a(lib_a-fclose.o)
                0x000000000800a020                _fclose_r
                0x000000000800a11c                fclose
 .text          0x000000000800a130      0x198 /usr/lib/gcc/arm-none-eabi/6.3.1/../../../arm-none-eabi/lib/libc.a(lib_a-fputwc.o)
                0x000000000800a130                __fputwc
                0x000000000800a240                _fputwc_r
                0x000000000800a260                fputwc
 .text          0x000000000800a2c8       0x44 /usr/lib/gcc/arm-none-eabi/6.3.1/../../../arm-none-eabi/lib/libc.a(lib_a-fstatr.o)
                0x000000000800a2c8                _fstat_r
 .text          0x000000000800a30c       0x3c /usr/lib/gcc/arm-none-eabi/6.3.1/../../../arm-none-eabi/lib/libc.a(lib_a-isattyr.o)
                0x000000000800a30c                _isatty_r
 .text          0x000000000800a348       0x48 /usr/lib/gcc/arm-none-eabi/6.3.1/../../../arm-none-eabi/lib/libc.a(lib_a-lseekr.o)
                0x000000000800a348                _lseek_r
 .text          0x000000000800a390       0x48 /usr/lib/gcc/arm-none-eabi/6.3.1/../../../arm-none-eabi/lib/libc.a(lib_a-readr.o)
                0x000000000800a390                _read_r
 .text          0x000000000800a3d8      0x130 /usr/lib/gcc/arm-none-eabi/6.3.1/../../../arm-none-eabi/lib/libc.a(lib_a-wcrtomb.o)
                0x000000000800a3d8                _wcrtomb_r
                0x000000000800a46c                wcrtomb
 .text          0x000000000800a508       0x78 /usr/lib/gcc/arm-none-eabi/6.3.1/../../../arm-none-eabi/lib/libc.a(lib_a-wctomb_r.o)
                0x000000000800a508                __ascii_wctomb
                0x000000000800a530                _wctomb_r
 .text          0x000000000800a580       0x24 /usr/lib/gcc/arm-none-eabi/6.3.1/thumb/v7-m/libgcc.a(_udivsi3.o)
                0x000000000800a580                __udivsi3
                0x000000000800a580                __aeabi_uidiv
                0x000000000800a594                __aeabi_uidivmod
 .text          0x000000000800a5a4       0x2c /usr/lib/gcc/arm-none-eabi/6.3.1/thumb/v7-m/libgcc.a(_divsi3.o)
                0x000000000800a5a4                __aeabi_idiv
                0x000000000800a5a4                __divsi3
                0x000000000800a5c0                __aeabi_idivmod
 .text          0x000000000800a5d0        0x4 /usr/lib/gcc/arm-none-eabi/6.3.1/thumb/v7-m/libgcc.a(_dvmd_tls.o)
                0x000000000800a5d0                __aeabi_ldiv0
                0x000000000800a5d0                __aeabi_idiv0
 .text          0x000000000800a5d4       0x2c /usr/lib/gcc/arm-none-eabi/6.3.1/thumb/v7-m/libgcc.a(_arm_unorddf2.o)
                0x000000000800a5d4                __aeabi_dcmpun
                0x000000000800a5d4                __unorddf2
 .text          0x000000000800a600       0x30 /usr/lib/gcc/arm-none-eabi/6.3.1/thumb/v7-m/libgcc.a(_aeabi_uldivmod.o)
                0x000000000800a600                __aeabi_uldivmod
 .text          0x000000000800a630      0x2dc /usr/lib/gcc/arm-none-eabi/6.3.1/thumb/v7-m/libgcc.a(_udivmoddi4.o)
                0x000000000800a630                __udivmoddi4
 *(.text*)
 .text.Reset_Handler
                0x000000000800a90c       0x48 /tmp/cc6EDpDG.o
                0x000000000800a90c                Reset_Handler
 .text.Default_Handler
                0x000000000800a954        0x2 /tmp/cc6EDpDG.o
                0x000000000800a954                EXTI2_IRQHandler
                0x000000000800a954                DebugMon_Handler
                0x000000000800a954                TIM1_CC_IRQHandler
                0x000000000800a954                HardFault_Handler
                0x000000000800a954                TIM6_IRQHandler
                0x000000000800a954                PVD_IRQHandler
                0x000000000800a954                PendSV_Handler
                0x000000000800a954                NMI_Handler
                0x000000000800a954                CAN2_RX1_IRQHandler
                0x000000000800a954                EXTI3_IRQHandler
                0x000000000800a954                EXTI0_IRQHandler
                0x000000000800a954                I2C2_EV_IRQHandler
                0x000000000800a954                CAN1_RX0_IRQHandler
                0x000000000800a954                UsageFault_Handler
                0x000000000800a954                CAN2_SCE_IRQHandler
                0x000000000800a954                ADC1_2_IRQHandler
                0x000000000800a954                SPI1_IRQHandler
                0x000000000800a954                TAMPER_IRQHandler
                0x000000000800a954                CAN2_RX0_IRQHandler
                0x000000000800a954                DMA2_Channel2_IRQHandler
                0x000000000800a954                DMA1_Channel4_IRQHandler
                0x000000000800a954                USART3_IRQHandler
                0x000000000800a954                RTC_IRQHandler
                0x000000000800a954                DMA1_Channel7_IRQHandler
                0x000000000800a954                CAN1_RX1_IRQHandler
                0x000000000800a954                UART5_IRQHandler
                0x000000000800a954                TIM4_IRQHandler
                0x000000000800a954                DMA2_Channel1_IRQHandler
                0x000000000800a954                I2C1_EV_IRQHandler
                0x000000000800a954                DMA1_Channel6_IRQHandler
                0x000000000800a954                UART4_IRQHandler
                0x000000000800a954                DMA2_Channel4_IRQHandler
                0x000000000800a954                TIM3_IRQHandler
                0x000000000800a954                RCC_IRQHandler
                0x000000000800a954                TIM1_TRG_COM_IRQHandler
                0x000000000800a954                DMA1_Channel1_IRQHandler
                0x000000000800a954                Default_Handler
                0x000000000800a954                EXTI15_10_IRQHandler
                0x000000000800a954                TIM7_IRQHandler
                0x000000000800a954                CAN2_TX_IRQHandler
                0x000000000800a954                TIM5_IRQHandler
                0x000000000800a954                ETH_WKUP_IRQHandler
                0x000000000800a954                SPI2_IRQHandler
                0x000000000800a954                MemManage_Handler
                0x000000000800a954                CAN1_TX_IRQHandler
                0x000000000800a954                SVC_Handler
                0x000000000800a954                DMA2_Channel5_IRQHandler
                0x000000000800a954                DMA1_Channel5_IRQHandler
                0x000000000800a954                EXTI4_IRQHandler
                0x000000000800a954                DMA1_Channel3_IRQHandler
                0x000000000800a954                ETH_IRQHandler
                0x000000000800a954                TIM1_UP_IRQHandler
                0x000000000800a954                WWDG_IRQHandler
                0x000000000800a954                TIM2_IRQHandler
                0x000000000800a954                TIM1_BRK_IRQHandler
                0x000000000800a954                EXTI1_IRQHandler
                0x000000000800a954                USART2_IRQHandler
                0x000000000800a954                I2C2_ER_IRQHandler
                0x000000000800a954                DMA1_Channel2_IRQHandler
                0x000000000800a954                CAN1_SCE_IRQHandler
                0x000000000800a954                FLASH_IRQHandler
                0x000000000800a954                BusFault_Handler
                0x000000000800a954                USART1_IRQHandler
                0x000000000800a954                SPI3_IRQHandler
                0x000000000800a954                I2C1_ER_IRQHandler
                0x000000000800a954                DMA2_Channel3_IRQHandler
 *fill*         0x000000000800a956        0x2 
 .text.process_thread_hello_world_process
                0x000000000800a958       0x1c hello-world.co
 .text.startup.main
                0x000000000800a974      0x170 obj_evb1000/contiki-main.o
                0x000000000800a974                main
 .text.rtc_init
                0x000000000800aae4       0x4c obj_evb1000/board.o
                0x000000000800aae4                rtc_init
 .text.rcc_init
                0x000000000800ab30       0xa8 obj_evb1000/board.o
                0x000000000800ab30                rcc_init
 .text.gpio_init
                0x000000000800abd8       0x5c obj_evb1000/board.o
                0x000000000800abd8                gpio_init
 .text.nvic_init
                0x000000000800ac34        0x8 obj_evb1000/board.o
                0x000000000800ac34                nvic_init
 .text.leds_arch_init
                0x000000000800ac3c       0x40 obj_evb1000/leds-arch.o
                0x000000000800ac3c                leds_arch_init
 .text.leds_arch_set
                0x000000000800ac7c       0x5c obj_evb1000/leds-arch.o
                0x000000000800ac7c                leds_arch_set
 .text.lcd_write
                0x000000000800acd8       0x9c obj_evb1000/lcd.o
                0x000000000800acd8                lcd_write
 .text.lcd_clear
                0x000000000800ad74       0x2c obj_evb1000/lcd.o
 .text.lcd_display_str
                0x000000000800ada0       0x1c obj_evb1000/lcd.o
                0x000000000800ada0                lcd_display_str
 .text.lcd_init
                0x000000000800adbc       0xd8 obj_evb1000/lcd.o
                0x000000000800adbc                lcd_init
 .text.OTG_FS_WKUP_IRQHandler
                0x000000000800ae94       0x30 obj_evb1000/stm32f10x_it.o
                0x000000000800ae94                OTG_FS_WKUP_IRQHandler
 .text.OTG_FS_IRQHandler
                0x000000000800aec4        0xc obj_evb1000/stm32f10x_it.o
                0x000000000800aec4                OTG_FS_IRQHandler
 .text._sbrk    0x000000000800aed0       0x30 obj_evb1000/syscalls.o
                0x000000000800aed0                _sbrk
 .text._write   0x000000000800af00       0x18 obj_evb1000/syscalls.o
                0x000000000800af00                _write
 .text._close   0x000000000800af18        0x4 obj_evb1000/syscalls.o
                0x000000000800af18                _close
 .text._lseek   0x000000000800af1c        0x4 obj_evb1000/syscalls.o
                0x000000000800af1c                _lseek
 .text._read    0x000000000800af20        0x4 obj_evb1000/syscalls.o
                0x000000000800af20                _read
 .text._fstat   0x000000000800af24        0x4 obj_evb1000/syscalls.o
                0x000000000800af24                _fstat
 .text._isatty  0x000000000800af28        0x4 obj_evb1000/syscalls.o
                0x000000000800af28                _isatty
 .text.EXTI9_5_IRQHandler
                0x000000000800af2c       0x28 obj_evb1000/dw1000-arch.o
                0x000000000800af2c                EXTI9_5_IRQHandler
 .text.dw1000_disable_interrupt
                0x000000000800af54       0x20 obj_evb1000/dw1000-arch.o
                0x000000000800af54                dw1000_disable_interrupt
 .text.dw1000_enable_interrupt
                0x000000000800af74       0x10 obj_evb1000/dw1000-arch.o
                0x000000000800af74                dw1000_enable_interrupt
 .text.dw1000_set_isr
                0x000000000800af84       0x38 obj_evb1000/dw1000-arch.o
                0x000000000800af84                dw1000_set_isr
 .text.dw1000_spi_read
                0x000000000800afbc       0xa8 obj_evb1000/dw1000-arch.o
                0x000000000800afbc                dw1000_spi_read
 .text.dw1000_spi_write
                0x000000000800b064       0xa8 obj_evb1000/dw1000-arch.o
                0x000000000800b064                dw1000_spi_write
 .text.dw1000_arch_reset
                0x000000000800b10c       0x4c obj_evb1000/dw1000-arch.o
                0x000000000800b10c                dw1000_arch_reset
 .text.dw1000_arch_init
                0x000000000800b158      0x100 obj_evb1000/dw1000-arch.o
                0x000000000800b158                dw1000_arch_init
 .text.dwt_getpartid
                0x000000000800b258        0xc obj_evb1000/deca_device.o
                0x000000000800b258                dwt_getpartid
 .text.dwt_getlotid
                0x000000000800b264        0xc obj_evb1000/deca_device.o
                0x000000000800b264                dwt_getlotid
 .text.dwt_readrxtimestamp
                0x000000000800b270       0x1c obj_evb1000/deca_device.o
                0x000000000800b270                dwt_readrxtimestamp
 .text.dwt_writetodevice
                0x000000000800b28c       0x50 obj_evb1000/deca_device.o
                0x000000000800b28c                dwt_writetodevice
 .text.dwt_writetxdata
                0x000000000800b2dc       0x20 obj_evb1000/deca_device.o
                0x000000000800b2dc                dwt_writetxdata
 .text.dwt_setrxantennadelay
                0x000000000800b2fc       0x24 obj_evb1000/deca_device.o
                0x000000000800b2fc                dwt_setrxantennadelay
 .text.dwt_settxantennadelay
                0x000000000800b320       0x20 obj_evb1000/deca_device.o
                0x000000000800b320                dwt_settxantennadelay
 .text.dwt_writetxfctrl
                0x000000000800b340       0x40 obj_evb1000/deca_device.o
                0x000000000800b340                dwt_writetxfctrl
 .text.dwt_readfromdevice
                0x000000000800b380       0x4c obj_evb1000/deca_device.o
                0x000000000800b380                dwt_readfromdevice
 .text.dwt_readrxdata
                0x000000000800b3cc       0x14 obj_evb1000/deca_device.o
                0x000000000800b3cc                dwt_readrxdata
 .text.dwt_readdevid
                0x000000000800b3e0       0x2c obj_evb1000/deca_device.o
                0x000000000800b3e0                dwt_readdevid
 .text.dwt_enableframefilter
                0x000000000800b40c       0x7c obj_evb1000/deca_device.o
                0x000000000800b40c                dwt_enableframefilter
 .text.dwt_setpanid
                0x000000000800b488       0x20 obj_evb1000/deca_device.o
                0x000000000800b488                dwt_setpanid
 .text.dwt_setaddress16
                0x000000000800b4a8       0x20 obj_evb1000/deca_device.o
                0x000000000800b4a8                dwt_setaddress16
 .text.dwt_seteui
                0x000000000800b4c8       0x1c obj_evb1000/deca_device.o
                0x000000000800b4c8                dwt_seteui
 .text.dwt_geteui
                0x000000000800b4e4       0x1c obj_evb1000/deca_device.o
                0x000000000800b4e4                dwt_geteui
 .text._dwt_otpread
                0x000000000800b500       0x68 obj_evb1000/deca_device.o
                0x000000000800b500                _dwt_otpread
 .text._dwt_aonarrayupload
                0x000000000800b568       0x2c obj_evb1000/deca_device.o
                0x000000000800b568                _dwt_aonarrayupload
 .text._dwt_configlde
                0x000000000800b594       0x40 obj_evb1000/deca_device.o
                0x000000000800b594                _dwt_configlde
 .text.dwt_configure
                0x000000000800b5d4      0x3a4 obj_evb1000/deca_device.o
                0x000000000800b5d4                dwt_configure
 .text.dwt_setrxaftertxdelay
                0x000000000800b978       0x58 obj_evb1000/deca_device.o
                0x000000000800b978                dwt_setrxaftertxdelay
 .text.dwt_setcallbacks
                0x000000000800b9d0       0x18 obj_evb1000/deca_device.o
                0x000000000800b9d0                dwt_setcallbacks
 .text.dwt_setleds
                0x000000000800b9e8      0x144 obj_evb1000/deca_device.o
                0x000000000800b9e8                dwt_setleds
 .text._dwt_enableclocks
                0x000000000800bb2c      0x10c obj_evb1000/deca_device.o
                0x000000000800bb2c                _dwt_enableclocks
 .text._dwt_loaducodefromrom
                0x000000000800bc38       0x34 obj_evb1000/deca_device.o
                0x000000000800bc38                _dwt_loaducodefromrom
 .text._dwt_disablesequencing
                0x000000000800bc6c       0x24 obj_evb1000/deca_device.o
                0x000000000800bc6c                _dwt_disablesequencing
 .text.dwt_starttx
                0x000000000800bc90       0xa8 obj_evb1000/deca_device.o
                0x000000000800bc90                dwt_starttx
 .text.dwt_syncrxbufptrs
                0x000000000800bd38       0x38 obj_evb1000/deca_device.o
                0x000000000800bd38                dwt_syncrxbufptrs
 .text.dwt_forcetrxoff
                0x000000000800bd70       0xc4 obj_evb1000/deca_device.o
                0x000000000800bd70                dwt_forcetrxoff
 .text.dwt_rxenable
                0x000000000800be34       0x98 obj_evb1000/deca_device.o
                0x000000000800be34                dwt_rxenable
 .text.dwt_setrxtimeout
                0x000000000800becc       0x7c obj_evb1000/deca_device.o
                0x000000000800becc                dwt_setrxtimeout
 .text.dwt_setinterrupt
                0x000000000800bf48       0x68 obj_evb1000/deca_device.o
                0x000000000800bf48                dwt_setinterrupt
 .text.dwt_rxreset
                0x000000000800bfb0       0x30 obj_evb1000/deca_device.o
                0x000000000800bfb0                dwt_rxreset
 .text.dwt_isr  0x000000000800bfe0      0x1dc obj_evb1000/deca_device.o
                0x000000000800bfe0                dwt_isr
 .text.dwt_softreset
                0x000000000800c1bc       0x68 obj_evb1000/deca_device.o
                0x000000000800c1bc                dwt_softreset
 .text.dwt_initialise
                0x000000000800c224      0x154 obj_evb1000/deca_device.o
                0x000000000800c224                dwt_initialise
 .text.dwt_getrangebias
                0x000000000800c378      0x18c obj_evb1000/deca_range_tables.o
                0x000000000800c378                dwt_getrangebias
 .text.dw1000_receiving_packet
                0x000000000800c504        0xc obj_evb1000/dw1000.o
 .text.dw1000_pending_packet
                0x000000000800c510        0xc obj_evb1000/dw1000.o
 .text.dw1000_off
                0x000000000800c51c        0x4 obj_evb1000/dw1000.o
 .text.dw1000_get_value
                0x000000000800c520        0x4 obj_evb1000/dw1000.o
 .text.dw1000_on
                0x000000000800c524       0x14 obj_evb1000/dw1000.o
 .text.rx_err_cb
                0x000000000800c538       0x18 obj_evb1000/dw1000.o
 .text.rx_to_cb
                0x000000000800c550       0x1c obj_evb1000/dw1000.o
 .text.rx_ok_cb
                0x000000000800c56c       0x54 obj_evb1000/dw1000.o
 .text.process_thread_dw1000_process
                0x000000000800c5c0       0x98 obj_evb1000/dw1000.o
 .text.dw1000_set_object
                0x000000000800c658       0x20 obj_evb1000/dw1000.o
 .text.dw1000_get_object
                0x000000000800c678       0x20 obj_evb1000/dw1000.o
 .text.dw1000_set_value
                0x000000000800c698       0x48 obj_evb1000/dw1000.o
 .text.dw1000_channel_clear
                0x000000000800c6e0       0x1c obj_evb1000/dw1000.o
 .text.dw1000_transmit
                0x000000000800c6fc       0x58 obj_evb1000/dw1000.o
 .text.dw1000_send
                0x000000000800c754       0x34 obj_evb1000/dw1000.o
 .text.tx_conf_cb
                0x000000000800c788       0x24 obj_evb1000/dw1000.o
 .text.dw1000_radio_read
                0x000000000800c7ac       0x20 obj_evb1000/dw1000.o
 .text.dw1000_prepare
                0x000000000800c7cc       0x30 obj_evb1000/dw1000.o
 .text.dw1000_configure
                0x000000000800c7fc       0x34 obj_evb1000/dw1000.o
                0x000000000800c7fc                dw1000_configure
 .text.dw1000_init
                0x000000000800c830       0xb0 obj_evb1000/dw1000.o
 .text.process_thread_dw1000_rng_process
                0x000000000800c8e0      0x248 obj_evb1000/dw1000-ranging.o
 .text.dw1000_ranging_init
                0x000000000800cb28       0x68 obj_evb1000/dw1000-ranging.o
                0x000000000800cb28                dw1000_ranging_init
 .text.dw1000_is_ranging
                0x000000000800cb90       0x10 obj_evb1000/dw1000-ranging.o
                0x000000000800cb90                dw1000_is_ranging
 .text.dw1000_range_reset
                0x000000000800cba0       0x20 obj_evb1000/dw1000-ranging.o
                0x000000000800cba0                dw1000_range_reset
 .text.dw1000_range_reconfigure
                0x000000000800cbc0       0x80 obj_evb1000/dw1000-ranging.o
                0x000000000800cbc0                dw1000_range_reconfigure
 .text.SystemInit
                0x000000000800cc40      0x134 obj_evb1000/system_stm32f10x.o
                0x000000000800cc40                SystemInit
 .text.__get_MSP
                0x000000000800cd74        0x8 obj_evb1000/core_cm3.o
                0x000000000800cd74                __get_MSP
 .text.NVIC_PriorityGroupConfig
                0x000000000800cd7c       0x14 obj_evb1000/misc.o
                0x000000000800cd7c                NVIC_PriorityGroupConfig
 .text.NVIC_Init
                0x000000000800cd90       0x64 obj_evb1000/misc.o
                0x000000000800cd90                NVIC_Init
 .text.GPIO_Init
                0x000000000800cdf4       0xbc obj_evb1000/stm32f10x_gpio.o
                0x000000000800cdf4                GPIO_Init
 .text.GPIO_ReadInputDataBit
                0x000000000800ceb0        0xc obj_evb1000/stm32f10x_gpio.o
                0x000000000800ceb0                GPIO_ReadInputDataBit
 .text.GPIO_SetBits
                0x000000000800cebc        0x4 obj_evb1000/stm32f10x_gpio.o
                0x000000000800cebc                GPIO_SetBits
 .text.GPIO_ResetBits
                0x000000000800cec0        0x4 obj_evb1000/stm32f10x_gpio.o
                0x000000000800cec0                GPIO_ResetBits
 .text.GPIO_WriteBit
                0x000000000800cec4        0xc obj_evb1000/stm32f10x_gpio.o
                0x000000000800cec4                GPIO_WriteBit
 .text.GPIO_EXTILineConfig
                0x000000000800ced0       0x30 obj_evb1000/stm32f10x_gpio.o
                0x000000000800ced0                GPIO_EXTILineConfig
 .text.RCC_DeInit
                0x000000000800cf00       0x50 obj_evb1000/stm32f10x_rcc.o
                0x000000000800cf00                RCC_DeInit
 .text.RCC_HSEConfig
                0x000000000800cf50       0x38 obj_evb1000/stm32f10x_rcc.o
                0x000000000800cf50                RCC_HSEConfig
 .text.RCC_WaitForHSEStartUp
                0x000000000800cf88       0x34 obj_evb1000/stm32f10x_rcc.o
                0x000000000800cf88                RCC_WaitForHSEStartUp
 .text.RCC_PLLConfig
                0x000000000800cfbc       0x14 obj_evb1000/stm32f10x_rcc.o
                0x000000000800cfbc                RCC_PLLConfig
 .text.RCC_PLLCmd
                0x000000000800cfd0        0xc obj_evb1000/stm32f10x_rcc.o
                0x000000000800cfd0                RCC_PLLCmd
 .text.RCC_PREDIV1Config
                0x000000000800cfdc       0x18 obj_evb1000/stm32f10x_rcc.o
                0x000000000800cfdc                RCC_PREDIV1Config
 .text.RCC_PREDIV2Config
                0x000000000800cff4       0x14 obj_evb1000/stm32f10x_rcc.o
                0x000000000800cff4                RCC_PREDIV2Config
 .text.RCC_PLL2Config
                0x000000000800d008       0x14 obj_evb1000/stm32f10x_rcc.o
                0x000000000800d008                RCC_PLL2Config
 .text.RCC_PLL2Cmd
                0x000000000800d01c        0xc obj_evb1000/stm32f10x_rcc.o
                0x000000000800d01c                RCC_PLL2Cmd
 .text.RCC_SYSCLKConfig
                0x000000000800d028       0x14 obj_evb1000/stm32f10x_rcc.o
                0x000000000800d028                RCC_SYSCLKConfig
 .text.RCC_GetSYSCLKSource
                0x000000000800d03c       0x10 obj_evb1000/stm32f10x_rcc.o
                0x000000000800d03c                RCC_GetSYSCLKSource
 .text.RCC_HCLKConfig
                0x000000000800d04c       0x14 obj_evb1000/stm32f10x_rcc.o
                0x000000000800d04c                RCC_HCLKConfig
 .text.RCC_PCLK1Config
                0x000000000800d060       0x14 obj_evb1000/stm32f10x_rcc.o
                0x000000000800d060                RCC_PCLK1Config
 .text.RCC_PCLK2Config
                0x000000000800d074       0x14 obj_evb1000/stm32f10x_rcc.o
                0x000000000800d074                RCC_PCLK2Config
 .text.RCC_ADCCLKConfig
                0x000000000800d088       0x14 obj_evb1000/stm32f10x_rcc.o
                0x000000000800d088                RCC_ADCCLKConfig
 .text.RCC_RTCCLKConfig
                0x000000000800d09c       0x10 obj_evb1000/stm32f10x_rcc.o
                0x000000000800d09c                RCC_RTCCLKConfig
 .text.RCC_RTCCLKCmd
                0x000000000800d0ac        0xc obj_evb1000/stm32f10x_rcc.o
                0x000000000800d0ac                RCC_RTCCLKCmd
 .text.RCC_GetClocksFreq
                0x000000000800d0b8       0xe4 obj_evb1000/stm32f10x_rcc.o
                0x000000000800d0b8                RCC_GetClocksFreq
 .text.RCC_AHBPeriphClockCmd
                0x000000000800d19c       0x18 obj_evb1000/stm32f10x_rcc.o
                0x000000000800d19c                RCC_AHBPeriphClockCmd
 .text.RCC_APB2PeriphClockCmd
                0x000000000800d1b4       0x18 obj_evb1000/stm32f10x_rcc.o
                0x000000000800d1b4                RCC_APB2PeriphClockCmd
 .text.RCC_APB1PeriphClockCmd
                0x000000000800d1cc       0x18 obj_evb1000/stm32f10x_rcc.o
                0x000000000800d1cc                RCC_APB1PeriphClockCmd
 .text.RCC_BackupResetCmd
                0x000000000800d1e4        0xc obj_evb1000/stm32f10x_rcc.o
                0x000000000800d1e4                RCC_BackupResetCmd
 .text.RCC_GetFlagStatus
                0x000000000800d1f0       0x34 obj_evb1000/stm32f10x_rcc.o
                0x000000000800d1f0                RCC_GetFlagStatus
 .text.EXTI_Init
                0x000000000800d224       0x7c obj_evb1000/stm32f10x_exti.o
                0x000000000800d224                EXTI_Init
 .text.EXTI_ClearITPendingBit
                0x000000000800d2a0        0xc obj_evb1000/stm32f10x_exti.o
                0x000000000800d2a0                EXTI_ClearITPendingBit
 .text.RTC_ITConfig
                0x000000000800d2ac       0x1c obj_evb1000/stm32f10x_rtc.o
                0x000000000800d2ac                RTC_ITConfig
 .text.RTC_GetCounter
                0x000000000800d2c8       0x14 obj_evb1000/stm32f10x_rtc.o
                0x000000000800d2c8                RTC_GetCounter
 .text.RTC_SetPrescaler
                0x000000000800d2dc       0x28 obj_evb1000/stm32f10x_rtc.o
                0x000000000800d2dc                RTC_SetPrescaler
 .text.RTC_SetAlarm
                0x000000000800d304       0x28 obj_evb1000/stm32f10x_rtc.o
                0x000000000800d304                RTC_SetAlarm
 .text.RTC_WaitForLastTask
                0x000000000800d32c       0x10 obj_evb1000/stm32f10x_rtc.o
                0x000000000800d32c                RTC_WaitForLastTask
 .text.RTC_WaitForSynchro
                0x000000000800d33c       0x1c obj_evb1000/stm32f10x_rtc.o
                0x000000000800d33c                RTC_WaitForSynchro
 .text.RTC_GetITStatus
                0x000000000800d358       0x20 obj_evb1000/stm32f10x_rtc.o
                0x000000000800d358                RTC_GetITStatus
 .text.RTC_ClearITPendingBit
                0x000000000800d378       0x14 obj_evb1000/stm32f10x_rtc.o
                0x000000000800d378                RTC_ClearITPendingBit
 .text.BKP_DeInit
                0x000000000800d38c       0x14 obj_evb1000/stm32f10x_bkp.o
                0x000000000800d38c                BKP_DeInit
 .text.FLASH_SetLatency
                0x000000000800d3a0       0x14 obj_evb1000/stm32f10x_flash.o
                0x000000000800d3a0                FLASH_SetLatency
 .text.FLASH_PrefetchBufferCmd
                0x000000000800d3b4       0x18 obj_evb1000/stm32f10x_flash.o
                0x000000000800d3b4                FLASH_PrefetchBufferCmd
 .text.IWDG_WriteAccessCmd
                0x000000000800d3cc        0xc obj_evb1000/stm32f10x_iwdg.o
                0x000000000800d3cc                IWDG_WriteAccessCmd
 .text.IWDG_SetPrescaler
                0x000000000800d3d8        0xc obj_evb1000/stm32f10x_iwdg.o
                0x000000000800d3d8                IWDG_SetPrescaler
 .text.IWDG_SetReload
                0x000000000800d3e4        0xc obj_evb1000/stm32f10x_iwdg.o
                0x000000000800d3e4                IWDG_SetReload
 .text.IWDG_ReloadCounter
                0x000000000800d3f0       0x10 obj_evb1000/stm32f10x_iwdg.o
                0x000000000800d3f0                IWDG_ReloadCounter
 .text.IWDG_Enable
                0x000000000800d400       0x10 obj_evb1000/stm32f10x_iwdg.o
                0x000000000800d400                IWDG_Enable
 .text.PWR_BackupAccessCmd
                0x000000000800d410        0xc obj_evb1000/stm32f10x_pwr.o
                0x000000000800d410                PWR_BackupAccessCmd
 .text.PWR_GetFlagStatus
                0x000000000800d41c       0x14 obj_evb1000/stm32f10x_pwr.o
                0x000000000800d41c                PWR_GetFlagStatus
 .text.PWR_ClearFlag
                0x000000000800d430       0x10 obj_evb1000/stm32f10x_pwr.o
                0x000000000800d430                PWR_ClearFlag
 .text.SPI_Init
                0x000000000800d440       0x40 obj_evb1000/stm32f10x_spi.o
                0x000000000800d440                SPI_Init
 .text.SPI_StructInit
                0x000000000800d480       0x18 obj_evb1000/stm32f10x_spi.o
                0x000000000800d480                SPI_StructInit
 .text.SPI_Cmd  0x000000000800d498       0x1c obj_evb1000/stm32f10x_spi.o
                0x000000000800d498                SPI_Cmd
 .text.SPI_I2S_SendData
                0x000000000800d4b4        0x4 obj_evb1000/stm32f10x_spi.o
                0x000000000800d4b4                SPI_I2S_SendData
 .text.SPI_I2S_ReceiveData
                0x000000000800d4b8        0x8 obj_evb1000/stm32f10x_spi.o
                0x000000000800d4b8                SPI_I2S_ReceiveData
 .text.SPI_SSOutputCmd
                0x000000000800d4c0       0x1c obj_evb1000/stm32f10x_spi.o
                0x000000000800d4c0                SPI_SSOutputCmd
 .text.SPI_I2S_GetFlagStatus
                0x000000000800d4dc        0xc obj_evb1000/stm32f10x_spi.o
                0x000000000800d4dc                SPI_I2S_GetFlagStatus
 .text.USBD_Resume
                0x000000000800d4e8       0x18 obj_evb1000/usbd_core.o
 .text.USBD_Suspend
                0x000000000800d500       0x1c obj_evb1000/usbd_core.o
 .text.USBD_SOF
                0x000000000800d51c       0x10 obj_evb1000/usbd_core.o
 .text.USBD_IsoINIncomplete
                0x000000000800d52c       0x10 obj_evb1000/usbd_core.o
 .text.USBD_IsoOUTIncomplete
                0x000000000800d53c       0x10 obj_evb1000/usbd_core.o
 .text.USBD_DevConnected
                0x000000000800d54c       0x18 obj_evb1000/usbd_core.o
 .text.USBD_DevDisconnected
                0x000000000800d564       0x20 obj_evb1000/usbd_core.o
 .text.USBD_Reset
                0x000000000800d584       0x30 obj_evb1000/usbd_core.o
 .text.USBD_SetupStage
                0x000000000800d5b4       0x58 obj_evb1000/usbd_core.o
 .text.USBD_DataInStage
                0x000000000800d60c       0xd0 obj_evb1000/usbd_core.o
 .text.USBD_DataOutStage
                0x000000000800d6dc       0x74 obj_evb1000/usbd_core.o
 .text.USBD_Init
                0x000000000800d750       0x38 obj_evb1000/usbd_core.o
                0x000000000800d750                USBD_Init
 .text.USBD_SetCfg
                0x000000000800d788       0x18 obj_evb1000/usbd_core.o
                0x000000000800d788                USBD_SetCfg
 .text.USBD_ClrCfg
                0x000000000800d7a0       0x10 obj_evb1000/usbd_core.o
                0x000000000800d7a0                USBD_ClrCfg
 .text.USBD_CtlSendData
                0x000000000800d7b0       0x20 obj_evb1000/usbd_ioreq.o
                0x000000000800d7b0                USBD_CtlSendData
 .text.USBD_CtlContinueSendData
                0x000000000800d7d0       0x10 obj_evb1000/usbd_ioreq.o
                0x000000000800d7d0                USBD_CtlContinueSendData
 .text.USBD_CtlPrepareRx
                0x000000000800d7e0       0x20 obj_evb1000/usbd_ioreq.o
                0x000000000800d7e0                USBD_CtlPrepareRx
 .text.USBD_CtlContinueRx
                0x000000000800d800       0x10 obj_evb1000/usbd_ioreq.o
                0x000000000800d800                USBD_CtlContinueRx
 .text.USBD_CtlSendStatus
                0x000000000800d810       0x20 obj_evb1000/usbd_ioreq.o
                0x000000000800d810                USBD_CtlSendStatus
 .text.USBD_CtlReceiveStatus
                0x000000000800d830       0x20 obj_evb1000/usbd_ioreq.o
                0x000000000800d830                USBD_CtlReceiveStatus
 .text.USBD_CtlError.constprop.0
                0x000000000800d850       0x1c obj_evb1000/usbd_req.o
 .text.USBD_StdDevReq
                0x000000000800d86c      0x2cc obj_evb1000/usbd_req.o
                0x000000000800d86c                USBD_StdDevReq
 .text.USBD_StdItfReq
                0x000000000800db38       0x34 obj_evb1000/usbd_req.o
                0x000000000800db38                USBD_StdItfReq
 .text.USBD_StdEPReq
                0x000000000800db6c       0xdc obj_evb1000/usbd_req.o
                0x000000000800db6c                USBD_StdEPReq
 .text.USBD_ParseSetupRequest
                0x000000000800dc48       0x48 obj_evb1000/usbd_req.o
                0x000000000800dc48                USBD_ParseSetupRequest
 .text.USBD_CtlError
                0x000000000800dc90       0x1c obj_evb1000/usbd_req.o
                0x000000000800dc90                USBD_CtlError
 .text.USBD_GetString
                0x000000000800dcac       0x4c obj_evb1000/usbd_req.o
                0x000000000800dcac                USBD_GetString
 .text.usbd_cdc_EP0_RxReady
                0x000000000800dcf8       0x30 obj_evb1000/usbd_cdc_core.o
                0x000000000800dcf8                usbd_cdc_EP0_RxReady
 .text.USBD_cdc_GetCfgDesc
                0x000000000800dd28        0xc obj_evb1000/usbd_cdc_core.o
 .text.usbd_cdc_Init
                0x000000000800dd34       0x54 obj_evb1000/usbd_cdc_core.o
                0x000000000800dd34                usbd_cdc_Init
 .text.usbd_cdc_DataOut
                0x000000000800dd88       0x34 obj_evb1000/usbd_cdc_core.o
                0x000000000800dd88                usbd_cdc_DataOut
 .text.usbd_cdc_DeInit
                0x000000000800ddbc       0x28 obj_evb1000/usbd_cdc_core.o
                0x000000000800ddbc                usbd_cdc_DeInit
 .text.usbd_cdc_Setup
                0x000000000800dde4       0xa8 obj_evb1000/usbd_cdc_core.o
                0x000000000800dde4                usbd_cdc_Setup
 .text.usbd_cdc_SOF
                0x000000000800de8c       0xa8 obj_evb1000/usbd_cdc_core.o
                0x000000000800de8c                usbd_cdc_SOF
 .text.usbd_cdc_DataIn
                0x000000000800df34       0x80 obj_evb1000/usbd_cdc_core.o
                0x000000000800df34                usbd_cdc_DataIn
 .text.DW_VCP_DeInit
                0x000000000800dfb4        0x4 obj_evb1000/deca_usb.o
                0x000000000800dfb4                DW_VCP_DeInit
 .text.DW_VCP_Ctrl
                0x000000000800dfb8        0x4 obj_evb1000/deca_usb.o
                0x000000000800dfb8                DW_VCP_Ctrl
 .text.DW_VCP_DataRx
                0x000000000800dfbc       0x1c obj_evb1000/deca_usb.o
                0x000000000800dfbc                DW_VCP_DataRx
 .text.DW_VCP_DataTx
                0x000000000800dfd8       0x48 obj_evb1000/deca_usb.o
                0x000000000800dfd8                DW_VCP_DataTx
 .text.DW_VCP_Init
                0x000000000800e020        0x4 obj_evb1000/deca_usb.o
                0x000000000800e020                DW_VCP_Init
 .text.usb_init
                0x000000000800e024       0x2c obj_evb1000/deca_usb.o
                0x000000000800e024                usb_init
 .text.USB_OTG_BSP_Init
                0x000000000800e050       0x6c obj_evb1000/deca_usb_bsp_evk1000.o
                0x000000000800e050                USB_OTG_BSP_Init
 .text.USB_OTG_BSP_EnableInterrupt
                0x000000000800e0bc       0x30 obj_evb1000/deca_usb_bsp_evk1000.o
                0x000000000800e0bc                USB_OTG_BSP_EnableInterrupt
 .text.USB_OTG_BSP_uDelay
                0x000000000800e0ec       0x24 obj_evb1000/deca_usb_bsp_evk1000.o
                0x000000000800e0ec                USB_OTG_BSP_uDelay
 .text.USB_OTG_BSP_mDelay
                0x000000000800e110       0x28 obj_evb1000/deca_usb_bsp_evk1000.o
                0x000000000800e110                USB_OTG_BSP_mDelay
 .text.USBD_USR_DeviceDescriptor
                0x000000000800e138        0xc obj_evb1000/usbd_desc.o
                0x000000000800e138                USBD_USR_DeviceDescriptor
 .text.USBD_USR_LangIDStrDescriptor
                0x000000000800e144        0xc obj_evb1000/usbd_desc.o
                0x000000000800e144                USBD_USR_LangIDStrDescriptor
 .text.USBD_USR_ManufacturerStrDescriptor
                0x000000000800e150       0x1c obj_evb1000/usbd_desc.o
                0x000000000800e150                USBD_USR_ManufacturerStrDescriptor
 .text.USBD_USR_ProductStrDescriptor
                0x000000000800e16c       0x28 obj_evb1000/usbd_desc.o
                0x000000000800e16c                USBD_USR_ProductStrDescriptor
 .text.USBD_USR_SerialStrDescriptor
                0x000000000800e194       0x28 obj_evb1000/usbd_desc.o
                0x000000000800e194                USBD_USR_SerialStrDescriptor
 .text.USBD_USR_ConfigStrDescriptor
                0x000000000800e1bc       0x1c obj_evb1000/usbd_desc.o
                0x000000000800e1bc                USBD_USR_ConfigStrDescriptor
 .text.USBD_USR_InterfaceStrDescriptor
                0x000000000800e1d8       0x1c obj_evb1000/usbd_desc.o
                0x000000000800e1d8                USBD_USR_InterfaceStrDescriptor
 .text.USBD_USR_DeviceReset
                0x000000000800e1f4        0x4 obj_evb1000/usbd_usr.o
                0x000000000800e1f4                USBD_USR_DeviceReset
 .text.USBD_USR_DeviceDisconnected
                0x000000000800e1f8        0x4 obj_evb1000/usbd_usr.o
                0x000000000800e1f8                USBD_USR_DeviceDisconnected
 .text.USBD_USR_DeviceConnected
                0x000000000800e1fc        0x4 obj_evb1000/usbd_usr.o
                0x000000000800e1fc                USBD_USR_DeviceConnected
 .text.USBD_USR_Init
                0x000000000800e200        0x4 obj_evb1000/usbd_usr.o
                0x000000000800e200                USBD_USR_Init
 .text.USBD_USR_DeviceConfigured
                0x000000000800e204        0x4 obj_evb1000/usbd_usr.o
                0x000000000800e204                USBD_USR_DeviceConfigured
 .text.USBD_USR_DeviceSuspended
                0x000000000800e208        0x4 obj_evb1000/usbd_usr.o
                0x000000000800e208                USBD_USR_DeviceSuspended
 .text.USBD_USR_DeviceResumed
                0x000000000800e20c        0x4 obj_evb1000/usbd_usr.o
                0x000000000800e20c                USBD_USR_DeviceResumed
 .text.USB_OTG_CoreReset.isra.1
                0x000000000800e210       0x64 obj_evb1000/usb_core.o
 .text.USB_OTG_WritePacket
                0x000000000800e274       0x28 obj_evb1000/usb_core.o
                0x000000000800e274                USB_OTG_WritePacket
 .text.USB_OTG_ReadPacket
                0x000000000800e29c       0x28 obj_evb1000/usb_core.o
                0x000000000800e29c                USB_OTG_ReadPacket
 .text.USB_OTG_SelectCore
                0x000000000800e2c4      0x128 obj_evb1000/usb_core.o
                0x000000000800e2c4                USB_OTG_SelectCore
 .text.USB_OTG_CoreInit
                0x000000000800e3ec       0x98 obj_evb1000/usb_core.o
                0x000000000800e3ec                USB_OTG_CoreInit
 .text.USB_OTG_EnableGlobalInt
                0x000000000800e484       0x10 obj_evb1000/usb_core.o
                0x000000000800e484                USB_OTG_EnableGlobalInt
 .text.USB_OTG_DisableGlobalInt
                0x000000000800e494       0x10 obj_evb1000/usb_core.o
                0x000000000800e494                USB_OTG_DisableGlobalInt
 .text.USB_OTG_FlushTxFifo
                0x000000000800e4a4       0x48 obj_evb1000/usb_core.o
                0x000000000800e4a4                USB_OTG_FlushTxFifo
 .text.USB_OTG_FlushRxFifo
                0x000000000800e4ec       0x40 obj_evb1000/usb_core.o
                0x000000000800e4ec                USB_OTG_FlushRxFifo
 .text.USB_OTG_SetCurrentMode
                0x000000000800e52c       0x2c obj_evb1000/usb_core.o
                0x000000000800e52c                USB_OTG_SetCurrentMode
 .text.USB_OTG_IsDeviceMode
                0x000000000800e558        0xc obj_evb1000/usb_core.o
                0x000000000800e558                USB_OTG_IsDeviceMode
 .text.USB_OTG_ReadCoreItr
                0x000000000800e564        0xc obj_evb1000/usb_core.o
                0x000000000800e564                USB_OTG_ReadCoreItr
 .text.USB_OTG_EnableDevInt
                0x000000000800e570       0x44 obj_evb1000/usb_core.o
                0x000000000800e570                USB_OTG_EnableDevInt
 .text.USB_OTG_CoreInitDev
                0x000000000800e5b4      0x10c obj_evb1000/usb_core.o
                0x000000000800e5b4                USB_OTG_CoreInitDev
 .text.USB_OTG_GetDeviceSpeed
                0x000000000800e6c0       0x14 obj_evb1000/usb_core.o
                0x000000000800e6c0                USB_OTG_GetDeviceSpeed
 .text.USB_OTG_EP0Activate
                0x000000000800e6d4       0x38 obj_evb1000/usb_core.o
                0x000000000800e6d4                USB_OTG_EP0Activate
 .text.USB_OTG_EPActivate
                0x000000000800e70c       0x5c obj_evb1000/usb_core.o
                0x000000000800e70c                USB_OTG_EPActivate
 .text.USB_OTG_EPDeactivate
                0x000000000800e768       0x44 obj_evb1000/usb_core.o
                0x000000000800e768                USB_OTG_EPDeactivate
 .text.USB_OTG_EPStartXfer
                0x000000000800e7ac      0x130 obj_evb1000/usb_core.o
                0x000000000800e7ac                USB_OTG_EPStartXfer
 .text.USB_OTG_EP0StartXfer
                0x000000000800e8dc       0xa4 obj_evb1000/usb_core.o
                0x000000000800e8dc                USB_OTG_EP0StartXfer
 .text.USB_OTG_EPSetStall
                0x000000000800e980       0x30 obj_evb1000/usb_core.o
                0x000000000800e980                USB_OTG_EPSetStall
 .text.USB_OTG_EPClearStall
                0x000000000800e9b0       0x2c obj_evb1000/usb_core.o
                0x000000000800e9b0                USB_OTG_EPClearStall
 .text.USB_OTG_ReadDevAllOutEp_itr
                0x000000000800e9dc        0xc obj_evb1000/usb_core.o
                0x000000000800e9dc                USB_OTG_ReadDevAllOutEp_itr
 .text.USB_OTG_ReadDevOutEP_itr
                0x000000000800e9e8       0x10 obj_evb1000/usb_core.o
                0x000000000800e9e8                USB_OTG_ReadDevOutEP_itr
 .text.USB_OTG_ReadDevAllInEPItr
                0x000000000800e9f8        0xc obj_evb1000/usb_core.o
                0x000000000800e9f8                USB_OTG_ReadDevAllInEPItr
 .text.USB_OTG_EP0_OutStart
                0x000000000800ea04       0x28 obj_evb1000/usb_core.o
                0x000000000800ea04                USB_OTG_EP0_OutStart
 .text.USB_OTG_UngateClock
                0x000000000800ea2c       0x20 obj_evb1000/usb_core.o
                0x000000000800ea2c                USB_OTG_UngateClock
 .text.USBD_OTG_ISR_Handler
                0x000000000800ea4c      0x624 obj_evb1000/usb_dcd_int.o
                0x000000000800ea4c                USBD_OTG_ISR_Handler
 .text.DCD_Init
                0x000000000800f070       0x98 obj_evb1000/usb_dcd.o
                0x000000000800f070                DCD_Init
 .text.DCD_EP_Open
                0x000000000800f108       0x64 obj_evb1000/usb_dcd.o
                0x000000000800f108                DCD_EP_Open
 .text.DCD_EP_Close
                0x000000000800f16c       0x38 obj_evb1000/usb_dcd.o
                0x000000000800f16c                DCD_EP_Close
 .text.DCD_EP_PrepareRx
                0x000000000800f1a4       0x4c obj_evb1000/usb_dcd.o
                0x000000000800f1a4                DCD_EP_PrepareRx
 .text.DCD_EP_Tx
                0x000000000800f1f0       0x44 obj_evb1000/usb_dcd.o
                0x000000000800f1f0                DCD_EP_Tx
 .text.DCD_EP_Stall
                0x000000000800f234       0x3c obj_evb1000/usb_dcd.o
                0x000000000800f234                DCD_EP_Stall
 .text.DCD_EP_ClrStall
                0x000000000800f270       0x3c obj_evb1000/usb_dcd.o
                0x000000000800f270                DCD_EP_ClrStall
 .text.DCD_EP_SetAddress
                0x000000000800f2ac       0x10 obj_evb1000/usb_dcd.o
                0x000000000800f2ac                DCD_EP_SetAddress
 .text.SysTick_Handler
                0x000000000800f2bc       0x3c obj_evb1000/clock.o
                0x000000000800f2bc                SysTick_Handler
 .text.clock_init
                0x000000000800f2f8       0x40 obj_evb1000/clock.o
                0x000000000800f2f8                clock_init
 .text.clock_time
                0x000000000800f338        0xc obj_evb1000/clock.o
                0x000000000800f338                clock_time
 .text.clock_seconds
                0x000000000800f344        0xc obj_evb1000/clock.o
                0x000000000800f344                clock_seconds
 .text.clock_wait
                0x000000000800f350       0x14 obj_evb1000/clock.o
                0x000000000800f350                clock_wait
 .text.watchdog_init
                0x000000000800f364       0x1c obj_evb1000/watchdog.o
                0x000000000800f364                watchdog_init
 .text.watchdog_start
                0x000000000800f380       0x10 obj_evb1000/watchdog.o
                0x000000000800f380                watchdog_start
 .text.watchdog_periodic
                0x000000000800f390        0x4 obj_evb1000/watchdog.o
                0x000000000800f390                watchdog_periodic
 .text.RTCAlarm_IRQHandler
                0x000000000800f394       0x3c obj_evb1000/rtimer-arch.o
                0x000000000800f394                RTCAlarm_IRQHandler
 .text.rtimer_arch_init
                0x000000000800f3d0       0x4c obj_evb1000/rtimer-arch.o
                0x000000000800f3d0                rtimer_arch_init
 .text.rtimer_arch_schedule
                0x000000000800f41c        0x4 obj_evb1000/rtimer-arch.o
                0x000000000800f41c                rtimer_arch_schedule
 .text.rtimer_arch_now
                0x000000000800f420        0x4 obj_evb1000/rtimer-arch.o
                0x000000000800f420                rtimer_arch_now
 .text.spix_init
                0x000000000800f424       0xb4 obj_evb1000/spix.o
                0x000000000800f424                spix_init
 .text.spix_change_speed
                0x000000000800f4d8       0x10 obj_evb1000/spix.o
                0x000000000800f4d8                spix_change_speed
 .text.autostart_start
                0x000000000800f4e8       0x18 contiki-evb1000.a(autostart.o)
                0x000000000800f4e8                autostart_start
 .text.process_thread_ctimer_process
                0x000000000800f500       0x94 contiki-evb1000.a(ctimer.o)
 .text.ctimer_init
                0x000000000800f594       0x28 contiki-evb1000.a(ctimer.o)
                0x000000000800f594                ctimer_init
 .text.ctimer_set_with_process
                0x000000000800f5bc       0x4c contiki-evb1000.a(ctimer.o)
                0x000000000800f5bc                ctimer_set_with_process
 .text.ctimer_set
                0x000000000800f608       0x18 contiki-evb1000.a(ctimer.o)
                0x000000000800f608                ctimer_set
 .text.ctimer_reset
                0x000000000800f620       0x38 contiki-evb1000.a(ctimer.o)
                0x000000000800f620                ctimer_reset
 .text.ctimer_restart
                0x000000000800f658       0x38 contiki-evb1000.a(ctimer.o)
                0x000000000800f658                ctimer_restart
 .text.ctimer_stop
                0x000000000800f690       0x34 contiki-evb1000.a(ctimer.o)
                0x000000000800f690                ctimer_stop
 .text.energest_init
                0x000000000800f6c4        0x4 contiki-evb1000.a(energest.o)
                0x000000000800f6c4                energest_init
 .text.update_time
                0x000000000800f6c8       0x44 contiki-evb1000.a(etimer.o)
 .text.process_thread_etimer_process
                0x000000000800f70c       0xcc contiki-evb1000.a(etimer.o)
 .text.add_timer
                0x000000000800f7d8       0x54 contiki-evb1000.a(etimer.o)
 .text.etimer_request_poll
                0x000000000800f82c        0xc contiki-evb1000.a(etimer.o)
                0x000000000800f82c                etimer_request_poll
 .text.etimer_set
                0x000000000800f838       0x14 contiki-evb1000.a(etimer.o)
                0x000000000800f838                etimer_set
 .text.etimer_reset
                0x000000000800f84c       0x14 contiki-evb1000.a(etimer.o)
                0x000000000800f84c                etimer_reset
 .text.etimer_restart
                0x000000000800f860       0x14 contiki-evb1000.a(etimer.o)
                0x000000000800f860                etimer_restart
 .text.etimer_expired
                0x000000000800f874        0xc contiki-evb1000.a(etimer.o)
                0x000000000800f874                etimer_expired
 .text.etimer_expiration_time
                0x000000000800f880        0x8 contiki-evb1000.a(etimer.o)
                0x000000000800f880                etimer_expiration_time
 .text.etimer_pending
                0x000000000800f888       0x10 contiki-evb1000.a(etimer.o)
                0x000000000800f888                etimer_pending
 .text.etimer_stop
                0x000000000800f898       0x44 contiki-evb1000.a(etimer.o)
                0x000000000800f898                etimer_stop
 .text.exit_process
                0x000000000800f8dc       0xa8 contiki-evb1000.a(process.o)
 .text.call_process.part.0
                0x000000000800f984       0x38 contiki-evb1000.a(process.o)
 .text.do_poll  0x000000000800f9bc       0x3c contiki-evb1000.a(process.o)
 .text.process_alloc_event
                0x000000000800f9f8       0x10 contiki-evb1000.a(process.o)
                0x000000000800f9f8                process_alloc_event
 .text.process_start
                0x000000000800fa08       0x48 contiki-evb1000.a(process.o)
                0x000000000800fa08                process_start
 .text.process_init
                0x000000000800fa50       0x34 contiki-evb1000.a(process.o)
                0x000000000800fa50                process_init
 .text.process_run
                0x000000000800fa84       0xa8 contiki-evb1000.a(process.o)
                0x000000000800fa84                process_run
 .text.process_post
                0x000000000800fb2c       0x40 contiki-evb1000.a(process.o)
                0x000000000800fb2c                process_post
 .text.process_post_synch
                0x000000000800fb6c       0x18 contiki-evb1000.a(process.o)
                0x000000000800fb6c                process_post_synch
 .text.process_poll
                0x000000000800fb84       0x18 contiki-evb1000.a(process.o)
                0x000000000800fb84                process_poll
 .text.rtimer_init
                0x000000000800fb9c        0x4 contiki-evb1000.a(rtimer.o)
                0x000000000800fb9c                rtimer_init
 .text.rtimer_run_next
                0x000000000800fba0       0x28 contiki-evb1000.a(rtimer.o)
                0x000000000800fba0                rtimer_run_next
 .text.timer_set
                0x000000000800fbc8       0x10 contiki-evb1000.a(timer.o)
                0x000000000800fbc8                timer_set
 .text.timer_reset
                0x000000000800fbd8        0xc contiki-evb1000.a(timer.o)
                0x000000000800fbd8                timer_reset
 .text.timer_restart
                0x000000000800fbe4        0xc contiki-evb1000.a(timer.o)
                0x000000000800fbe4                timer_restart
 .text.timer_expired
                0x000000000800fbf0       0x1c contiki-evb1000.a(timer.o)
                0x000000000800fbf0                timer_expired
 .text.process_thread_serial_line_process
                0x000000000800fc0c       0xa8 contiki-evb1000.a(serial-line.o)
 .text.serial_line_input_byte
                0x000000000800fcb4       0x58 contiki-evb1000.a(serial-line.o)
                0x000000000800fcb4                serial_line_input_byte
 .text.serial_line_init
                0x000000000800fd0c       0x24 contiki-evb1000.a(serial-line.o)
                0x000000000800fd0c                serial_line_init
 .text.leds_init
                0x000000000800fd30       0x14 contiki-evb1000.a(leds.o)
                0x000000000800fd30                leds_init
 .text.leds_set
                0x000000000800fd44        0xc contiki-evb1000.a(leds.o)
                0x000000000800fd44                leds_set
 .text.leds_on  0x000000000800fd50       0x14 contiki-evb1000.a(leds.o)
                0x000000000800fd50                leds_on
 .text.leds_off
                0x000000000800fd64       0x14 contiki-evb1000.a(leds.o)
                0x000000000800fd64                leds_off
 .text.leds_toggle
                0x000000000800fd78       0x14 contiki-evb1000.a(leds.o)
                0x000000000800fd78                leds_toggle
 .text.list_init
                0x000000000800fd8c        0x8 contiki-evb1000.a(list.o)
                0x000000000800fd8c                list_init
 .text.list_head
                0x000000000800fd94        0x4 contiki-evb1000.a(list.o)
                0x000000000800fd94                list_head
 .text.list_add
                0x000000000800fd98       0x58 contiki-evb1000.a(list.o)
                0x000000000800fd98                list_add
 .text.list_push
                0x000000000800fdf0       0x44 contiki-evb1000.a(list.o)
                0x000000000800fdf0                list_push
 .text.list_remove
                0x000000000800fe34       0x38 contiki-evb1000.a(list.o)
                0x000000000800fe34                list_remove
 .text.list_length
                0x000000000800fe6c       0x14 contiki-evb1000.a(list.o)
                0x000000000800fe6c                list_length
 .text.list_item_next
                0x000000000800fe80        0x8 contiki-evb1000.a(list.o)
                0x000000000800fe80                list_item_next
 .text.ringbuf_init
                0x000000000800fe88       0x10 contiki-evb1000.a(ringbuf.o)
                0x000000000800fe88                ringbuf_init
 .text.ringbuf_put
                0x000000000800fe98       0x2c contiki-evb1000.a(ringbuf.o)
                0x000000000800fe98                ringbuf_put
 .text.ringbuf_get
                0x000000000800fec4       0x24 contiki-evb1000.a(ringbuf.o)
                0x000000000800fec4                ringbuf_get
 .text.chksum   0x000000000800fee8       0x50 contiki-evb1000.a(uip6.o)
 .text.upper_layer_chksum
                0x000000000800ff38       0x58 contiki-evb1000.a(uip6.o)
 .text.ext_hdr_options_process
                0x000000000800ff90       0xe0 contiki-evb1000.a(uip6.o)
 .text.uip_add32
                0x0000000008010070       0x58 contiki-evb1000.a(uip6.o)
                0x0000000008010070                uip_add32
 .text.unlikely.uip_add_rcv_nxt
                0x00000000080100c8       0x2c contiki-evb1000.a(uip6.o)
 .text.uip_icmp6chksum
                0x00000000080100f4        0x8 contiki-evb1000.a(uip6.o)
                0x00000000080100f4                uip_icmp6chksum
 .text.uip_init
                0x00000000080100fc       0x5c contiki-evb1000.a(uip6.o)
                0x00000000080100fc                uip_init
 .text.remove_ext_hdr
                0x0000000008010158       0x54 contiki-evb1000.a(uip6.o)
                0x0000000008010158                remove_ext_hdr
 .text.uip_unlisten
                0x00000000080101ac       0x28 contiki-evb1000.a(uip6.o)
                0x00000000080101ac                uip_unlisten
 .text.uip_process
                0x00000000080101d4     0x1014 contiki-evb1000.a(uip6.o)
                0x00000000080101d4                uip_process
 .text.uip_htonl
                0x00000000080111e8       0x1c contiki-evb1000.a(uip6.o)
                0x00000000080111e8                uip_htonl
 .text.ns_input
                0x0000000008011204      0x28c contiki-evb1000.a(uip-nd6.o)
 .text.uip_nd6_init
                0x0000000008011490        0xc contiki-evb1000.a(uip-nd6.o)
                0x0000000008011490                uip_nd6_init
 .text.start_periodic_tcp_timer
                0x000000000801149c       0x1c contiki-evb1000.a(tcpip.o)
 .text.tcpip_set_outputfunc
                0x00000000080114b8        0xc contiki-evb1000.a(tcpip.o)
                0x00000000080114b8                tcpip_set_outputfunc
 .text.tcpip_icmp6_call
                0x00000000080114c4       0x28 contiki-evb1000.a(tcpip.o)
                0x00000000080114c4                tcpip_icmp6_call
 .text.tcpip_input
                0x00000000080114ec       0x24 contiki-evb1000.a(tcpip.o)
                0x00000000080114ec                tcpip_input
 .text.tcpip_ipv6_output
                0x0000000008011510       0xbc contiki-evb1000.a(tcpip.o)
                0x0000000008011510                tcpip_ipv6_output
 .text.process_thread_tcpip_process
                0x00000000080115cc      0x1cc contiki-evb1000.a(tcpip.o)
 .text.tcpip_uipcall
                0x0000000008011798       0x70 contiki-evb1000.a(tcpip.o)
                0x0000000008011798                tcpip_uipcall
 .text.rpl_set_preferred_parent
                0x0000000008011808       0x2c contiki-evb1000.a(rpl-dag.o)
 .text.set_ip_from_prefix
                0x0000000008011834       0x24 contiki-evb1000.a(rpl-dag.o)
 .text.check_prefix
                0x0000000008011858       0x78 contiki-evb1000.a(rpl-dag.o)
 .text.find_parent_any_dag_any_instance
                0x00000000080118d0       0x1c contiki-evb1000.a(rpl-dag.o)
 .text.lollipop_greater_than
                0x00000000080118ec       0x3c contiki-evb1000.a(rpl-dag.o)
 .text.rpl_dag_init
                0x0000000008011928       0x14 contiki-evb1000.a(rpl-dag.o)
                0x0000000008011928                rpl_dag_init
 .text.rpl_get_parent
                0x000000000801193c       0x10 contiki-evb1000.a(rpl-dag.o)
                0x000000000801193c                rpl_get_parent
 .text.rpl_rank_via_parent
                0x000000000801194c       0x1c contiki-evb1000.a(rpl-dag.o)
                0x000000000801194c                rpl_rank_via_parent
 .text.rpl_get_parent_ipaddr
                0x0000000008011968       0x18 contiki-evb1000.a(rpl-dag.o)
                0x0000000008011968                rpl_get_parent_ipaddr
 .text.rpl_get_parent_link_stats
                0x0000000008011980       0x18 contiki-evb1000.a(rpl-dag.o)
                0x0000000008011980                rpl_get_parent_link_stats
 .text.best_parent
                0x0000000008011998       0x94 contiki-evb1000.a(rpl-dag.o)
 .text.rpl_parent_is_fresh
                0x0000000008011a2c       0x10 contiki-evb1000.a(rpl-dag.o)
                0x0000000008011a2c                rpl_parent_is_fresh
 .text.rpl_parent_is_reachable
                0x0000000008011a3c       0x3c contiki-evb1000.a(rpl-dag.o)
                0x0000000008011a3c                rpl_parent_is_reachable
 .text.rpl_repair_root
                0x0000000008011a78       0x58 contiki-evb1000.a(rpl-dag.o)
                0x0000000008011a78                rpl_repair_root
 .text.rpl_set_prefix
                0x0000000008011ad0       0x94 contiki-evb1000.a(rpl-dag.o)
                0x0000000008011ad0                rpl_set_prefix
 .text.rpl_set_default_route
                0x0000000008011b64       0x30 contiki-evb1000.a(rpl-dag.o)
                0x0000000008011b64                rpl_set_default_route
 .text.rpl_alloc_instance
                0x0000000008011b94       0x34 contiki-evb1000.a(rpl-dag.o)
                0x0000000008011b94                rpl_alloc_instance
 .text.rpl_alloc_dag
                0x0000000008011bc8       0x5c contiki-evb1000.a(rpl-dag.o)
                0x0000000008011bc8                rpl_alloc_dag
 .text.rpl_add_parent
                0x0000000008011c24       0x30 contiki-evb1000.a(rpl-dag.o)
                0x0000000008011c24                rpl_add_parent
 .text.rpl_find_parent
                0x0000000008011c54       0x18 contiki-evb1000.a(rpl-dag.o)
                0x0000000008011c54                rpl_find_parent
 .text.rpl_find_parent_any_dag
                0x0000000008011c6c       0x20 contiki-evb1000.a(rpl-dag.o)
                0x0000000008011c6c                rpl_find_parent_any_dag
 .text.rpl_select_parent
                0x0000000008011c8c       0x54 contiki-evb1000.a(rpl-dag.o)
                0x0000000008011c8c                rpl_select_parent
 .text.rpl_select_dag
                0x0000000008011ce0      0x178 contiki-evb1000.a(rpl-dag.o)
                0x0000000008011ce0                rpl_select_dag
 .text.rpl_nullify_parent
                0x0000000008011e58       0x54 contiki-evb1000.a(rpl-dag.o)
                0x0000000008011e58                rpl_nullify_parent
 .text.nbr_callback
                0x0000000008011eac       0x1c contiki-evb1000.a(rpl-dag.o)
 .text.remove_parents.constprop.6
                0x0000000008011ec8       0x48 contiki-evb1000.a(rpl-dag.o)
 .text.rpl_free_dag
                0x0000000008011f10       0x3c contiki-evb1000.a(rpl-dag.o)
                0x0000000008011f10                rpl_free_dag
 .text.rpl_move_parent
                0x0000000008011f4c       0x58 contiki-evb1000.a(rpl-dag.o)
                0x0000000008011f4c                rpl_move_parent
 .text.rpl_get_dag
                0x0000000008011fa4       0x54 contiki-evb1000.a(rpl-dag.o)
                0x0000000008011fa4                rpl_get_dag
 .text.rpl_get_any_dag
                0x0000000008011ff8       0x18 contiki-evb1000.a(rpl-dag.o)
                0x0000000008011ff8                rpl_get_any_dag
 .text.rpl_get_instance
                0x0000000008012010       0x20 contiki-evb1000.a(rpl-dag.o)
                0x0000000008012010                rpl_get_instance
 .text.rpl_join_instance
                0x0000000008012030      0x14c contiki-evb1000.a(rpl-dag.o)
                0x0000000008012030                rpl_join_instance
 .text.rpl_local_repair
                0x000000000801217c       0x90 contiki-evb1000.a(rpl-dag.o)
                0x000000000801217c                rpl_local_repair
 .text.rpl_process_parent_event
                0x000000000801220c       0x9c contiki-evb1000.a(rpl-dag.o)
                0x000000000801220c                rpl_process_parent_event
 .text.rpl_add_dag
                0x00000000080122a8      0x148 contiki-evb1000.a(rpl-dag.o)
                0x00000000080122a8                rpl_add_dag
 .text.rpl_recalculate_ranks
                0x00000000080123f0       0x50 contiki-evb1000.a(rpl-dag.o)
                0x00000000080123f0                rpl_recalculate_ranks
 .text.rpl_process_dio
                0x0000000008012440      0x324 contiki-evb1000.a(rpl-dag.o)
                0x0000000008012440                rpl_process_dio
 .text.new_dio_interval
                0x0000000008012764       0x60 contiki-evb1000.a(rpl-timers.o)
 .text.handle_periodic_timer
                0x00000000080127c4       0x58 contiki-evb1000.a(rpl-timers.o)
 .text.set_dao_lifetime_timer
                0x000000000801281c       0x4c contiki-evb1000.a(rpl-timers.o)
 .text.handle_unicast_dio_timer
                0x0000000008012868       0x1c contiki-evb1000.a(rpl-timers.o)
 .text.handle_dio_timer
                0x0000000008012884       0x8c contiki-evb1000.a(rpl-timers.o)
 .text.schedule_dao
                0x0000000008012910       0x54 contiki-evb1000.a(rpl-timers.o)
 .text.handle_dao_timer
                0x0000000008012964       0x5c contiki-evb1000.a(rpl-timers.o)
 .text.rpl_reset_periodic_timer
                0x00000000080129c0       0x3c contiki-evb1000.a(rpl-timers.o)
                0x00000000080129c0                rpl_reset_periodic_timer
 .text.rpl_reset_dio_timer
                0x00000000080129fc       0x1c contiki-evb1000.a(rpl-timers.o)
                0x00000000080129fc                rpl_reset_dio_timer
 .text.rpl_schedule_dao
                0x0000000008012a18        0x8 contiki-evb1000.a(rpl-timers.o)
                0x0000000008012a18                rpl_schedule_dao
 .text.rpl_schedule_unicast_dio_immediately
                0x0000000008012a20       0x14 contiki-evb1000.a(rpl-timers.o)
                0x0000000008012a20                rpl_schedule_unicast_dio_immediately
 .text.get_probing_delay
                0x0000000008012a34       0x38 contiki-evb1000.a(rpl-timers.o)
                0x0000000008012a34                get_probing_delay
 .text.get_probing_target
                0x0000000008012a6c       0xdc contiki-evb1000.a(rpl-timers.o)
                0x0000000008012a6c                get_probing_target
 .text.rpl_schedule_probing
                0x0000000008012b48       0x20 contiki-evb1000.a(rpl-timers.o)
                0x0000000008012b48                rpl_schedule_probing
 .text.handle_probing_timer
                0x0000000008012b68       0x34 contiki-evb1000.a(rpl-timers.o)
 .text.update_hbh_header
                0x0000000008012b9c       0xd0 contiki-evb1000.a(rpl-ext-header.)
 .text.insert_hbh_header.isra.0
                0x0000000008012c6c       0xb0 contiki-evb1000.a(rpl-ext-header.)
 .text.rpl_verify_hbh_header
                0x0000000008012d1c       0xec contiki-evb1000.a(rpl-ext-header.)
                0x0000000008012d1c                rpl_verify_hbh_header
 .text.rpl_remove_header
                0x0000000008012e08       0x78 contiki-evb1000.a(rpl-ext-header.)
                0x0000000008012e08                rpl_remove_header
 .text.rpl_update_header
                0x0000000008012e80       0x74 contiki-evb1000.a(rpl-ext-header.)
                0x0000000008012e80                rpl_update_header
 .text.rpl_get_mode
                0x0000000008012ef4        0xc contiki-evb1000.a(rpl.o)
                0x0000000008012ef4                rpl_get_mode
 .text.rpl_purge_routes
                0x0000000008012f00       0x80 contiki-evb1000.a(rpl.o)
                0x0000000008012f00                rpl_purge_routes
 .text.rpl_remove_routes
                0x0000000008012f80       0x24 contiki-evb1000.a(rpl.o)
                0x0000000008012f80                rpl_remove_routes
 .text.rpl_remove_routes_by_nexthop
                0x0000000008012fa4       0x34 contiki-evb1000.a(rpl.o)
                0x0000000008012fa4                rpl_remove_routes_by_nexthop
 .text.rpl_add_route
                0x0000000008012fd8       0x38 contiki-evb1000.a(rpl.o)
                0x0000000008012fd8                rpl_add_route
 .text.rpl_link_neighbor_callback
                0x0000000008013010       0x60 contiki-evb1000.a(rpl.o)
                0x0000000008013010                rpl_link_neighbor_callback
 .text.rpl_ipv6_neighbor_callback
                0x0000000008013070       0x30 contiki-evb1000.a(rpl.o)
                0x0000000008013070                rpl_ipv6_neighbor_callback
 .text.rpl_purge_dags
                0x00000000080130a0       0x60 contiki-evb1000.a(rpl.o)
                0x00000000080130a0                rpl_purge_dags
 .text.rpl_init
                0x0000000008013100       0x4c contiki-evb1000.a(rpl.o)
                0x0000000008013100                rpl_init
 .text.reset    0x000000000801314c        0x4 contiki-evb1000.a(rpl-mrhof.o)
 .text.update_metric_container
                0x0000000008013150        0x8 contiki-evb1000.a(rpl-mrhof.o)
 .text.parent_link_metric
                0x0000000008013158       0x14 contiki-evb1000.a(rpl-mrhof.o)
 .text.parent_has_usable_link
                0x000000000801316c       0x18 contiki-evb1000.a(rpl-mrhof.o)
 .text.best_dag
                0x0000000008013184       0x30 contiki-evb1000.a(rpl-mrhof.o)
 .text.parent_path_cost
                0x00000000080131b4       0x4c contiki-evb1000.a(rpl-mrhof.o)
 .text.parent_is_acceptable
                0x0000000008013200       0x34 contiki-evb1000.a(rpl-mrhof.o)
 .text.rank_via_parent
                0x0000000008013234       0x3c contiki-evb1000.a(rpl-mrhof.o)
 .text.best_parent
                0x0000000008013270       0x68 contiki-evb1000.a(rpl-mrhof.o)
 .text.queuebuf_init
                0x00000000080132d8       0x1c contiki-evb1000.a(queuebuf.o)
                0x00000000080132d8                queuebuf_init
 .text.queuebuf_numfree
                0x00000000080132f4        0xc contiki-evb1000.a(queuebuf.o)
                0x00000000080132f4                queuebuf_numfree
 .text.queuebuf_new_from_packetbuf
                0x0000000008013300       0x44 contiki-evb1000.a(queuebuf.o)
                0x0000000008013300                queuebuf_new_from_packetbuf
 .text.queuebuf_update_attr_from_packetbuf
                0x0000000008013344        0xc contiki-evb1000.a(queuebuf.o)
                0x0000000008013344                queuebuf_update_attr_from_packetbuf
 .text.queuebuf_free
                0x0000000008013350       0x2c contiki-evb1000.a(queuebuf.o)
                0x0000000008013350                queuebuf_free
 .text.queuebuf_to_packetbuf
                0x000000000801337c       0x30 contiki-evb1000.a(queuebuf.o)
                0x000000000801337c                queuebuf_to_packetbuf
 .text.queuebuf_attr
                0x00000000080133ac        0xc contiki-evb1000.a(queuebuf.o)
                0x00000000080133ac                queuebuf_attr
 .text.index_from_lladdr
                0x00000000080133b8       0x50 contiki-evb1000.a(nbr-table.o)
 .text.remove_key
                0x0000000008013408       0x90 contiki-evb1000.a(nbr-table.o)
 .text.nbr_table_register
                0x0000000008013498       0x2c contiki-evb1000.a(nbr-table.o)
                0x0000000008013498                nbr_table_register
 .text.nbr_table_next
                0x00000000080134c4       0x78 contiki-evb1000.a(nbr-table.o)
                0x00000000080134c4                nbr_table_next
 .text.nbr_table_head
                0x000000000801353c       0x58 contiki-evb1000.a(nbr-table.o)
                0x000000000801353c                nbr_table_head
 .text.nbr_table_add_lladdr
                0x0000000008013594      0x15c contiki-evb1000.a(nbr-table.o)
                0x0000000008013594                nbr_table_add_lladdr
 .text.nbr_table_get_from_lladdr
                0x00000000080136f0       0x38 contiki-evb1000.a(nbr-table.o)
                0x00000000080136f0                nbr_table_get_from_lladdr
 .text.nbr_table_remove
                0x0000000008013728       0x5c contiki-evb1000.a(nbr-table.o)
                0x0000000008013728                nbr_table_remove
 .text.nbr_table_lock
                0x0000000008013784       0x34 contiki-evb1000.a(nbr-table.o)
                0x0000000008013784                nbr_table_lock
 .text.nbr_table_unlock
                0x00000000080137b8       0x34 contiki-evb1000.a(nbr-table.o)
                0x00000000080137b8                nbr_table_unlock
 .text.nbr_table_get_lladdr
                0x00000000080137ec       0x2c contiki-evb1000.a(nbr-table.o)
                0x00000000080137ec                nbr_table_get_lladdr
 .text.nbr_table_update_lladdr
                0x0000000008013818       0x58 contiki-evb1000.a(nbr-table.o)
                0x0000000008013818                nbr_table_update_lladdr
 .text.packetbuf_copyto
                0x0000000008013870       0x50 contiki-evb1000.a(packetbuf.o)
                0x0000000008013870                packetbuf_copyto
 .text.packetbuf_hdralloc
                0x00000000080138c0       0x54 contiki-evb1000.a(packetbuf.o)
                0x00000000080138c0                packetbuf_hdralloc
 .text.packetbuf_hdrreduce
                0x0000000008013914       0x2c contiki-evb1000.a(packetbuf.o)
                0x0000000008013914                packetbuf_hdrreduce
 .text.packetbuf_set_datalen
                0x0000000008013940        0xc contiki-evb1000.a(packetbuf.o)
                0x0000000008013940                packetbuf_set_datalen
 .text.packetbuf_dataptr
                0x000000000801394c       0x20 contiki-evb1000.a(packetbuf.o)
                0x000000000801394c                packetbuf_dataptr
 .text.packetbuf_hdrptr
                0x000000000801396c        0x8 contiki-evb1000.a(packetbuf.o)
                0x000000000801396c                packetbuf_hdrptr
 .text.packetbuf_datalen
                0x0000000008013974        0xc contiki-evb1000.a(packetbuf.o)
                0x0000000008013974                packetbuf_datalen
 .text.packetbuf_totlen
                0x0000000008013980       0x24 contiki-evb1000.a(packetbuf.o)
                0x0000000008013980                packetbuf_totlen
 .text.packetbuf_attr_clear
                0x00000000080139a4       0x34 contiki-evb1000.a(packetbuf.o)
                0x00000000080139a4                packetbuf_attr_clear
 .text.packetbuf_clear
                0x00000000080139d8       0x20 contiki-evb1000.a(packetbuf.o)
                0x00000000080139d8                packetbuf_clear
 .text.packetbuf_copyfrom
                0x00000000080139f8       0x40 contiki-evb1000.a(packetbuf.o)
                0x00000000080139f8                packetbuf_copyfrom
 .text.packetbuf_attr_copyto
                0x0000000008013a38       0x44 contiki-evb1000.a(packetbuf.o)
                0x0000000008013a38                packetbuf_attr_copyto
 .text.packetbuf_attr_copyfrom
                0x0000000008013a7c       0x44 contiki-evb1000.a(packetbuf.o)
                0x0000000008013a7c                packetbuf_attr_copyfrom
 .text.packetbuf_set_attr
                0x0000000008013ac0       0x10 contiki-evb1000.a(packetbuf.o)
                0x0000000008013ac0                packetbuf_set_attr
 .text.packetbuf_attr
                0x0000000008013ad0        0xc contiki-evb1000.a(packetbuf.o)
                0x0000000008013ad0                packetbuf_attr
 .text.packetbuf_set_addr
                0x0000000008013adc       0x18 contiki-evb1000.a(packetbuf.o)
                0x0000000008013adc                packetbuf_set_addr
 .text.packetbuf_addr
                0x0000000008013af4       0x10 contiki-evb1000.a(packetbuf.o)
                0x0000000008013af4                packetbuf_addr
 .text.packetbuf_holds_broadcast
                0x0000000008013b04       0x10 contiki-evb1000.a(packetbuf.o)
                0x0000000008013b04                packetbuf_holds_broadcast
 .text.netstack_init
                0x0000000008013b14       0x24 contiki-evb1000.a(netstack.o)
                0x0000000008013b14                netstack_init
 .text.linkaddr_copy
                0x0000000008013b38        0xc contiki-evb1000.a(linkaddr.o)
                0x0000000008013b38                linkaddr_copy
 .text.linkaddr_cmp
                0x0000000008013b44       0x10 contiki-evb1000.a(linkaddr.o)
                0x0000000008013b44                linkaddr_cmp
 .text.periodic
                0x0000000008013b54       0x30 contiki-evb1000.a(link-stats.o)
 .text.link_stats_from_lladdr
                0x0000000008013b84        0xc contiki-evb1000.a(link-stats.o)
                0x0000000008013b84                link_stats_from_lladdr
 .text.link_stats_is_fresh
                0x0000000008013b90       0x2c contiki-evb1000.a(link-stats.o)
                0x0000000008013b90                link_stats_is_fresh
 .text.link_stats_packet_sent
                0x0000000008013bbc       0xd0 contiki-evb1000.a(link-stats.o)
                0x0000000008013bbc                link_stats_packet_sent
 .text.link_stats_input_callback
                0x0000000008013c8c       0x5c contiki-evb1000.a(link-stats.o)
                0x0000000008013c8c                link_stats_input_callback
 .text.link_stats_init
                0x0000000008013ce8       0x2c contiki-evb1000.a(link-stats.o)
                0x0000000008013ce8                link_stats_init
 .text.on       0x0000000008013d14        0xc contiki-evb1000.a(nullrdc.o)
 .text.channel_check_interval
                0x0000000008013d20        0x4 contiki-evb1000.a(nullrdc.o)
 .text.init     0x0000000008013d24        0xc contiki-evb1000.a(nullrdc.o)
 .text.packet_input
                0x0000000008013d30       0xc8 contiki-evb1000.a(nullrdc.o)
 .text.send_one_packet
                0x0000000008013df8      0x144 contiki-evb1000.a(nullrdc.o)
 .text.send_list
                0x0000000008013f3c       0x28 contiki-evb1000.a(nullrdc.o)
 .text.send_packet
                0x0000000008013f64        0x4 contiki-evb1000.a(nullrdc.o)
 .text.off      0x0000000008013f68       0x1c contiki-evb1000.a(nullrdc.o)
 .text.init     0x0000000008013f84        0x4 contiki-evb1000.a(nullsec.o)
 .text.input    0x0000000008013f88        0xc contiki-evb1000.a(nullsec.o)
 .text.send     0x0000000008013f94       0x20 contiki-evb1000.a(nullsec.o)
 .text.memb_init
                0x0000000008013fb4       0x24 contiki-evb1000.a(memb.o)
                0x0000000008013fb4                memb_init
 .text.memb_alloc
                0x0000000008013fd8       0x3c contiki-evb1000.a(memb.o)
                0x0000000008013fd8                memb_alloc
 .text.memb_free
                0x0000000008014014       0x40 contiki-evb1000.a(memb.o)
                0x0000000008014014                memb_free
 .text.memb_inmemb
                0x0000000008014054       0x1c contiki-evb1000.a(memb.o)
                0x0000000008014054                memb_inmemb
 .text.memb_numfree
                0x0000000008014070       0x20 contiki-evb1000.a(memb.o)
                0x0000000008014070                memb_numfree
 .text.random_rand
                0x0000000008014090        0xc contiki-evb1000.a(random.o)
                0x0000000008014090                random_rand
 .text.echo_reply_input
                0x000000000801409c       0xb0 contiki-evb1000.a(uip-icmp6.o)
 .text.echo_request_input
                0x000000000801414c       0xb0 contiki-evb1000.a(uip-icmp6.o)
 .text.uip_icmp6_input
                0x00000000080141fc       0x3c contiki-evb1000.a(uip-icmp6.o)
                0x00000000080141fc                uip_icmp6_input
 .text.uip_icmp6_register_input_handler
                0x0000000008014238        0xc contiki-evb1000.a(uip-icmp6.o)
                0x0000000008014238                uip_icmp6_register_input_handler
 .text.uip_icmp6_error_output
                0x0000000008014244      0x158 contiki-evb1000.a(uip-icmp6.o)
                0x0000000008014244                uip_icmp6_error_output
 .text.uip_icmp6_send
                0x000000000801439c       0x84 contiki-evb1000.a(uip-icmp6.o)
                0x000000000801439c                uip_icmp6_send
 .text.uip_icmp6_init
                0x0000000008014420       0x24 contiki-evb1000.a(uip-icmp6.o)
                0x0000000008014420                uip_icmp6_init
 .text.uip_ds6_list_loop
                0x0000000008014444       0x58 contiki-evb1000.a(uip-ds6.o)
                0x0000000008014444                uip_ds6_list_loop
 .text.uip_ds6_prefix_add
                0x000000000801449c       0x6c contiki-evb1000.a(uip-ds6.o)
                0x000000000801449c                uip_ds6_prefix_add
 .text.uip_ds6_is_addr_onlink
                0x0000000008014508       0x40 contiki-evb1000.a(uip-ds6.o)
                0x0000000008014508                uip_ds6_is_addr_onlink
 .text.uip_ds6_addr_lookup
                0x0000000008014548       0x30 contiki-evb1000.a(uip-ds6.o)
                0x0000000008014548                uip_ds6_addr_lookup
 .text.uip_ds6_get_link_local
                0x0000000008014578       0x50 contiki-evb1000.a(uip-ds6.o)
                0x0000000008014578                uip_ds6_get_link_local
 .text.uip_ds6_maddr_add
                0x00000000080145c8       0x50 contiki-evb1000.a(uip-ds6.o)
                0x00000000080145c8                uip_ds6_maddr_add
 .text.uip_ds6_addr_add
                0x0000000008014618       0xa8 contiki-evb1000.a(uip-ds6.o)
                0x0000000008014618                uip_ds6_addr_add
 .text.uip_ds6_maddr_lookup
                0x00000000080146c0       0x30 contiki-evb1000.a(uip-ds6.o)
                0x00000000080146c0                uip_ds6_maddr_lookup
 .text.uip_ds6_addr_rm
                0x00000000080146f0       0x48 contiki-evb1000.a(uip-ds6.o)
                0x00000000080146f0                uip_ds6_addr_rm
 .text.uip_ds6_periodic
                0x0000000008014738       0x5c contiki-evb1000.a(uip-ds6.o)
                0x0000000008014738                uip_ds6_periodic
 .text.uip_ds6_select_src
                0x0000000008014794      0x124 contiki-evb1000.a(uip-ds6.o)
                0x0000000008014794                uip_ds6_select_src
 .text.uip_ds6_set_addr_iid
                0x00000000080148b8       0x14 contiki-evb1000.a(uip-ds6.o)
                0x00000000080148b8                uip_ds6_set_addr_iid
 .text.uip_ds6_compute_reachable_time
                0x00000000080148cc       0x2c contiki-evb1000.a(uip-ds6.o)
                0x00000000080148cc                uip_ds6_compute_reachable_time
 .text.uip_ds6_init
                0x00000000080148f8       0xf4 contiki-evb1000.a(uip-ds6.o)
                0x00000000080148f8                uip_ds6_init
 .text.call_route_callback
                0x00000000080149ec       0x54 contiki-evb1000.a(uip-ds6-route.o)
 .text.uip_ds6_route_init
                0x0000000008014a40       0x4c contiki-evb1000.a(uip-ds6-route.o)
                0x0000000008014a40                uip_ds6_route_init
 .text.uip_ds6_route_nexthop
                0x0000000008014a8c       0x1c contiki-evb1000.a(uip-ds6-route.o)
                0x0000000008014a8c                uip_ds6_route_nexthop
 .text.uip_ds6_route_head
                0x0000000008014aa8        0xc contiki-evb1000.a(uip-ds6-route.o)
                0x0000000008014aa8                uip_ds6_route_head
 .text.uip_ds6_route_next
                0x0000000008014ab4        0x8 contiki-evb1000.a(uip-ds6-route.o)
                0x0000000008014ab4                uip_ds6_route_next
 .text.uip_ds6_route_is_nexthop
                0x0000000008014abc       0x20 contiki-evb1000.a(uip-ds6-route.o)
                0x0000000008014abc                uip_ds6_route_is_nexthop
 .text.uip_ds6_route_lookup
                0x0000000008014adc       0x78 contiki-evb1000.a(uip-ds6-route.o)
                0x0000000008014adc                uip_ds6_route_lookup
 .text.uip_ds6_route_rm
                0x0000000008014b54       0xac contiki-evb1000.a(uip-ds6-route.o)
                0x0000000008014b54                uip_ds6_route_rm
 .text.rm_routelist
                0x0000000008014c00       0x38 contiki-evb1000.a(uip-ds6-route.o)
 .text.rm_routelist_callback
                0x0000000008014c38        0x4 contiki-evb1000.a(uip-ds6-route.o)
 .text.uip_ds6_route_add
                0x0000000008014c3c      0x114 contiki-evb1000.a(uip-ds6-route.o)
                0x0000000008014c3c                uip_ds6_route_add
 .text.uip_ds6_defrt_rm
                0x0000000008014d50       0x48 contiki-evb1000.a(uip-ds6-route.o)
                0x0000000008014d50                uip_ds6_defrt_rm
 .text.uip_ds6_defrt_lookup
                0x0000000008014d98       0x38 contiki-evb1000.a(uip-ds6-route.o)
                0x0000000008014d98                uip_ds6_defrt_lookup
 .text.uip_ds6_defrt_add
                0x0000000008014dd0       0x5c contiki-evb1000.a(uip-ds6-route.o)
                0x0000000008014dd0                uip_ds6_defrt_add
 .text.uip_ds6_defrt_choose
                0x0000000008014e2c       0x34 contiki-evb1000.a(uip-ds6-route.o)
                0x0000000008014e2c                uip_ds6_defrt_choose
 .text.uip_ds6_defrt_periodic
                0x0000000008014e60       0x44 contiki-evb1000.a(uip-ds6-route.o)
                0x0000000008014e60                uip_ds6_defrt_periodic
 .text.uip_ds6_nbr_rm
                0x0000000008014ea4       0x20 contiki-evb1000.a(uip-ds6-nbr.o)
                0x0000000008014ea4                uip_ds6_nbr_rm
 .text.uip_ds6_neighbors_init
                0x0000000008014ec4       0x1c contiki-evb1000.a(uip-ds6-nbr.o)
                0x0000000008014ec4                uip_ds6_neighbors_init
 .text.uip_ds6_nbr_add
                0x0000000008014ee0       0x38 contiki-evb1000.a(uip-ds6-nbr.o)
                0x0000000008014ee0                uip_ds6_nbr_add
 .text.uip_ds6_nbr_get_ll
                0x0000000008014f18       0x10 contiki-evb1000.a(uip-ds6-nbr.o)
                0x0000000008014f18                uip_ds6_nbr_get_ll
 .text.uip_ds6_nbr_lookup
                0x0000000008014f28       0x3c contiki-evb1000.a(uip-ds6-nbr.o)
                0x0000000008014f28                uip_ds6_nbr_lookup
 .text.uip_ds6_nbr_ipaddr_from_lladdr
                0x0000000008014f64       0x10 contiki-evb1000.a(uip-ds6-nbr.o)
                0x0000000008014f64                uip_ds6_nbr_ipaddr_from_lladdr
 .text.uip_ds6_nbr_lladdr_from_ipaddr
                0x0000000008014f74       0x1c contiki-evb1000.a(uip-ds6-nbr.o)
                0x0000000008014f74                uip_ds6_nbr_lladdr_from_ipaddr
 .text.uip_ds6_link_neighbor_callback
                0x0000000008014f90       0x34 contiki-evb1000.a(uip-ds6-nbr.o)
                0x0000000008014f90                uip_ds6_link_neighbor_callback
 .text.sicslowpan_init
                0x0000000008014fc4       0x24 contiki-evb1000.a(sicslowpan.o)
                0x0000000008014fc4                sicslowpan_init
 .text.compress_addr_64
                0x0000000008014fe8       0x9c contiki-evb1000.a(sicslowpan.o)
 .text.set_packet_attrs
                0x0000000008015084       0x50 contiki-evb1000.a(sicslowpan.o)
 .text.addr_context_lookup_by_prefix
                0x00000000080150d4       0x28 contiki-evb1000.a(sicslowpan.o)
 .text.send_packet
                0x00000000080150fc       0x24 contiki-evb1000.a(sicslowpan.o)
 .text.packet_sent
                0x0000000008015120       0x28 contiki-evb1000.a(sicslowpan.o)
 .text.store_fragment
                0x0000000008015148       0x74 contiki-evb1000.a(sicslowpan.o)
 .text.add_fragment
                0x00000000080151bc      0x1b8 contiki-evb1000.a(sicslowpan.o)
 .text.uncompress_addr
                0x0000000008015374       0xc4 contiki-evb1000.a(sicslowpan.o)
 .text.input    0x0000000008015438      0x640 contiki-evb1000.a(sicslowpan.o)
 .text.output   0x0000000008015a78      0x760 contiki-evb1000.a(sicslowpan.o)
 .text.uip_debug_ipaddr_print
                0x00000000080161d8       0xbc contiki-evb1000.a(uip-debug.o)
                0x00000000080161d8                uip_debug_ipaddr_print
 .text.dao_ack_input
                0x0000000008016294       0x14 contiki-evb1000.a(rpl-icmp6.o)
 .text.dao_output_target_seq
                0x00000000080162a8      0x11c contiki-evb1000.a(rpl-icmp6.o)
 .text.dio_input
                0x00000000080163c4      0x2ac contiki-evb1000.a(rpl-icmp6.o)
 .text.rpl_icmp6_update_nbr_table
                0x0000000008016670       0x38 contiki-evb1000.a(rpl-icmp6.o)
                0x0000000008016670                rpl_icmp6_update_nbr_table
 .text.dao_input
                0x00000000080166a8      0x2c0 contiki-evb1000.a(rpl-icmp6.o)
 .text.dis_output
                0x0000000008016968       0x58 contiki-evb1000.a(rpl-icmp6.o)
                0x0000000008016968                dis_output
 .text.dio_output
                0x00000000080169c0      0x2b0 contiki-evb1000.a(rpl-icmp6.o)
                0x00000000080169c0                dio_output
 .text.dis_input
                0x0000000008016c70       0x54 contiki-evb1000.a(rpl-icmp6.o)
 .text.dao_output
                0x0000000008016cc4       0x8c contiki-evb1000.a(rpl-icmp6.o)
                0x0000000008016cc4                dao_output
 .text.dao_output_target
                0x0000000008016d50        0xc contiki-evb1000.a(rpl-icmp6.o)
                0x0000000008016d50                dao_output_target
 .text.rpl_icmp6_register_handlers
                0x0000000008016d5c       0x30 contiki-evb1000.a(rpl-icmp6.o)
                0x0000000008016d5c                rpl_icmp6_register_handlers
 .text.update_nbr
                0x0000000008016d8c      0x10c contiki-evb1000.a(rpl-nbr-policy.)
 .text.handle_periodic_timer
                0x0000000008016e98       0x14 contiki-evb1000.a(rpl-nbr-policy.)
 .text.find_removable_dio
                0x0000000008016eac       0x3c contiki-evb1000.a(rpl-nbr-policy.)
                0x0000000008016eac                find_removable_dio
 .text.rpl_nbr_policy_find_removable
                0x0000000008016ee8       0x64 contiki-evb1000.a(rpl-nbr-policy.)
                0x0000000008016ee8                rpl_nbr_policy_find_removable
 .text.mac_sequence_is_duplicate
                0x0000000008016f4c       0x50 contiki-evb1000.a(mac-sequence.o)
                0x0000000008016f4c                mac_sequence_is_duplicate
 .text.mac_sequence_register_seqno
                0x0000000008016f9c       0x60 contiki-evb1000.a(mac-sequence.o)
                0x0000000008016f9c                mac_sequence_register_seqno
 .text.input_packet
                0x0000000008016ffc        0xc contiki-evb1000.a(csma.o)
 .text.on       0x0000000008017008        0xc contiki-evb1000.a(csma.o)
 .text.off      0x0000000008017014        0xc contiki-evb1000.a(csma.o)
 .text.channel_check_interval
                0x0000000008017020       0x10 contiki-evb1000.a(csma.o)
 .text.transmit_packet_list
                0x0000000008017030       0x34 contiki-evb1000.a(csma.o)
 .text.schedule_transmission
                0x0000000008017064       0x58 contiki-evb1000.a(csma.o)
 .text.send_packet
                0x00000000080170bc      0x154 contiki-evb1000.a(csma.o)
 .text.init     0x0000000008017210       0x24 contiki-evb1000.a(csma.o)
 .text.tx_done  0x0000000008017234       0x90 contiki-evb1000.a(csma.o)
 .text.packet_sent
                0x00000000080172c4       0xf0 contiki-evb1000.a(csma.o)
 .text.frame802154_get_pan_id
                0x00000000080173b4        0xc contiki-evb1000.a(frame802154.o)
                0x00000000080173b4                frame802154_get_pan_id
 .text.frame802154_has_panid
                0x00000000080173c0       0xa4 contiki-evb1000.a(frame802154.o)
                0x00000000080173c0                frame802154_has_panid
 .text.field_len
                0x0000000008017464       0x88 contiki-evb1000.a(frame802154.o)
 .text.frame802154_is_broadcast_addr
                0x00000000080174ec       0x20 contiki-evb1000.a(frame802154.o)
                0x00000000080174ec                frame802154_is_broadcast_addr
 .text.frame802154_hdrlen
                0x000000000801750c       0x34 contiki-evb1000.a(frame802154.o)
                0x000000000801750c                frame802154_hdrlen
 .text.frame802154_create_fcf
                0x0000000008017540       0x64 contiki-evb1000.a(frame802154.o)
                0x0000000008017540                frame802154_create_fcf
 .text.frame802154_create
                0x00000000080175a4       0xb4 contiki-evb1000.a(frame802154.o)
                0x00000000080175a4                frame802154_create
 .text.frame802154_parse_fcf
                0x0000000008017658       0x44 contiki-evb1000.a(frame802154.o)
                0x0000000008017658                frame802154_parse_fcf
 .text.frame802154_parse
                0x000000000801769c      0x138 contiki-evb1000.a(frame802154.o)
                0x000000000801769c                frame802154_parse
 .text.mac_call_sent_callback
                0x00000000080177d4       0x18 contiki-evb1000.a(mac.o)
                0x00000000080177d4                mac_call_sent_callback
 .text.parse    0x00000000080177ec       0xa4 contiki-evb1000.a(framer-802154.o)
 .text.create_frame.isra.0
                0x0000000008017890      0x144 contiki-evb1000.a(framer-802154.o)
 .text.create   0x00000000080179d4        0x8 contiki-evb1000.a(framer-802154.o)
 .text.hdr_length
                0x00000000080179dc        0x8 contiki-evb1000.a(framer-802154.o)
 .text.stimer_set
                0x00000000080179e4       0x10 contiki-evb1000.a(stimer.o)
                0x00000000080179e4                stimer_set
 .text.stimer_expired
                0x00000000080179f4       0x20 contiki-evb1000.a(stimer.o)
                0x00000000080179f4                stimer_expired
 .text.startup  0x0000000008017a14       0x28 /usr/lib/gcc/arm-none-eabi/6.3.1/../../../arm-none-eabi/lib/libc.a(lib_a-__call_atexit.o)
 *(.rodata)
 .rodata        0x0000000008017a3c        0x9 obj_evb1000/lcd.o
 *fill*         0x0000000008017a45        0x3 
 .rodata        0x0000000008017a48        0x2 contiki-evb1000.a(sicslowpan.o)
 *fill*         0x0000000008017a4a        0x2 
 .rodata        0x0000000008017a4c        0x4 /usr/lib/gcc/arm-none-eabi/6.3.1/../../../arm-none-eabi/lib/libc.a(lib_a-impure.o)
                0x0000000008017a4c                _global_impure_ptr
 .rodata        0x0000000008017a50       0x20 /usr/lib/gcc/arm-none-eabi/6.3.1/../../../arm-none-eabi/lib/libc.a(lib_a-vfprintf.o)
 .rodata        0x0000000008017a70      0x128 /usr/lib/gcc/arm-none-eabi/6.3.1/../../../arm-none-eabi/lib/libc.a(lib_a-mprec.o)
                0x0000000008017a80                __mprec_tens
                0x0000000008017b48                __mprec_tinytens
                0x0000000008017b70                __mprec_bigtens
 .rodata        0x0000000008017b98       0x20 /usr/lib/gcc/arm-none-eabi/6.3.1/../../../arm-none-eabi/lib/libc.a(lib_a-vfiprintf.o)
 *(.rodata*)
 .rodata.autostart_processes
                0x0000000008017bb8        0x8 hello-world.co
                0x0000000008017bb8                autostart_processes
 .rodata.process_thread_hello_world_process.str1.4
                0x0000000008017bc0        0xd hello-world.co
 *fill*         0x0000000008017bcd        0x3 
 .rodata.str1.4
                0x0000000008017bd0       0x14 hello-world.co
 .rodata.dw1000_arch_init.str1.4
                0x0000000008017be4        0xc obj_evb1000/dw1000-arch.o
 .rodata.agc_config
                0x0000000008017bf0        0x8 obj_evb1000/deca_params_init.o
                0x0000000008017bf0                agc_config
 .rodata.chan_idx
                0x0000000008017bf8        0x8 obj_evb1000/deca_params_init.o
                0x0000000008017bf8                chan_idx
 .rodata.digital_bb_config
                0x0000000008017c00       0x20 obj_evb1000/deca_params_init.o
                0x0000000008017c00                digital_bb_config
 .rodata.dtune1
                0x0000000008017c20        0x4 obj_evb1000/deca_params_init.o
                0x0000000008017c20                dtune1
 .rodata.dwnsSFDlen
                0x0000000008017c24        0x3 obj_evb1000/deca_params_init.o
                0x0000000008017c24                dwnsSFDlen
 *fill*         0x0000000008017c27        0x1 
 .rodata.fs_pll_cfg
                0x0000000008017c28       0x18 obj_evb1000/deca_params_init.o
                0x0000000008017c28                fs_pll_cfg
 .rodata.fs_pll_tune
                0x0000000008017c40        0x6 obj_evb1000/deca_params_init.o
                0x0000000008017c40                fs_pll_tune
 *fill*         0x0000000008017c46        0x2 
 .rodata.lde_replicaCoeff
                0x0000000008017c48       0x32 obj_evb1000/deca_params_init.o
                0x0000000008017c48                lde_replicaCoeff
 *fill*         0x0000000008017c7a        0x2 
 .rodata.rx_config
                0x0000000008017c7c        0x2 obj_evb1000/deca_params_init.o
                0x0000000008017c7c                rx_config
 *fill*         0x0000000008017c7e        0x2 
 .rodata.sftsh  0x0000000008017c80        0xc obj_evb1000/deca_params_init.o
                0x0000000008017c80                sftsh
 .rodata.tx_config
                0x0000000008017c8c       0x18 obj_evb1000/deca_params_init.o
                0x0000000008017c8c                tx_config
 .rodata.chan_idxnb
                0x0000000008017ca4        0x8 obj_evb1000/deca_range_tables.o
                0x0000000008017ca4                chan_idxnb
 .rodata.chan_idxwb
                0x0000000008017cac        0x8 obj_evb1000/deca_range_tables.o
                0x0000000008017cac                chan_idxwb
 .rodata.range25cm16PRFnb
                0x0000000008017cb4       0x94 obj_evb1000/deca_range_tables.o
                0x0000000008017cb4                range25cm16PRFnb
 .rodata.range25cm16PRFwb
                0x0000000008017d48       0x88 obj_evb1000/deca_range_tables.o
                0x0000000008017d48                range25cm16PRFwb
 .rodata.range25cm64PRFnb
                0x0000000008017dd0       0x68 obj_evb1000/deca_range_tables.o
                0x0000000008017dd0                range25cm64PRFnb
 .rodata.range25cm64PRFwb
                0x0000000008017e38       0x76 obj_evb1000/deca_range_tables.o
                0x0000000008017e38                range25cm64PRFwb
 *fill*         0x0000000008017eae        0x2 
 .rodata.dw1000_driver
                0x0000000008017eb0       0x38 obj_evb1000/dw1000.o
                0x0000000008017eb0                dw1000_driver
 .rodata.str1.4
                0x0000000008017ee8        0xe obj_evb1000/dw1000.o
 *fill*         0x0000000008017ef6        0x2 
 .rodata.ranging_ant_ch4
                0x0000000008017ef8        0x4 obj_evb1000/dw1000-ranging.o
                0x0000000008017ef8                ranging_ant_ch4
 .rodata.ranging_conf_110K
                0x0000000008017efc       0x1c obj_evb1000/dw1000-ranging.o
                0x0000000008017efc                ranging_conf_110K
 .rodata.ranging_conf_6M8
                0x0000000008017f18       0x1c obj_evb1000/dw1000-ranging.o
                0x0000000008017f18                ranging_conf_6M8
 .rodata.str1.4
                0x0000000008017f34       0x13 obj_evb1000/dw1000-ranging.o
 *fill*         0x0000000008017f47        0x1 
 .rodata.USBD_USR_ConfigStrDescriptor.str1.4
                0x0000000008017f48        0xb obj_evb1000/usbd_desc.o
 *fill*         0x0000000008017f53        0x1 
 .rodata.USBD_USR_InterfaceStrDescriptor.str1.4
                0x0000000008017f54        0xe obj_evb1000/usbd_desc.o
 *fill*         0x0000000008017f62        0x2 
 .rodata.USBD_USR_ManufacturerStrDescriptor.str1.4
                0x0000000008017f64       0x13 obj_evb1000/usbd_desc.o
 *fill*         0x0000000008017f77        0x1 
 .rodata.USBD_USR_ProductStrDescriptor.str1.4
                0x0000000008017f78       0x45 obj_evb1000/usbd_desc.o
 *fill*         0x0000000008017fbd        0x3 
 .rodata.USBD_USR_SerialStrDescriptor.str1.4
                0x0000000008017fc0       0x1d obj_evb1000/usbd_desc.o
 *fill*         0x0000000008017fdd        0x3 
 .rodata.CSWTCH.23
                0x0000000008017fe0        0x4 obj_evb1000/usb_core.o
 .rodata.str1.4
                0x0000000008017fe4        0xf contiki-evb1000.a(ctimer.o)
 *fill*         0x0000000008017ff3        0x1 
 .rodata.str1.4
                0x0000000008017ff4        0xc contiki-evb1000.a(etimer.o)
 .rodata.str1.4
                0x0000000008018000        0xe contiki-evb1000.a(serial-line.o)
 *fill*         0x000000000801800e        0x2 
 .rodata.str1.4
                0x0000000008018010        0xd contiki-evb1000.a(tcpip.o)
 *fill*         0x000000000801801d        0x3 
 .rodata.linkaddr_null
                0x0000000008018020        0x8 contiki-evb1000.a(linkaddr.o)
                0x0000000008018020                linkaddr_null
 .rodata.nullrdc_driver
                0x0000000008018028       0x20 contiki-evb1000.a(nullrdc.o)
                0x0000000008018028                nullrdc_driver
 .rodata.str1.4
                0x0000000008018048        0x8 contiki-evb1000.a(nullrdc.o)
 .rodata.nullsec_driver
                0x0000000008018050       0x10 contiki-evb1000.a(nullsec.o)
                0x0000000008018050                nullsec_driver
 .rodata.str1.4
                0x0000000008018060        0x8 contiki-evb1000.a(nullsec.o)
 .rodata.llprefix
                0x0000000008018068        0x2 contiki-evb1000.a(sicslowpan.o)
                0x0000000008018068                llprefix
 *fill*         0x000000000801806a        0x2 
 .rodata.sicslowpan_driver
                0x000000000801806c        0xc contiki-evb1000.a(sicslowpan.o)
                0x000000000801806c                sicslowpan_driver
 .rodata.str1.4
                0x0000000008018078        0xb contiki-evb1000.a(sicslowpan.o)
 *fill*         0x0000000008018083        0x1 
 .rodata.ttl_values
                0x0000000008018084        0x4 contiki-evb1000.a(sicslowpan.o)
 .rodata.unc_ctxconf
                0x0000000008018088        0x4 contiki-evb1000.a(sicslowpan.o)
                0x0000000008018088                unc_ctxconf
 .rodata.unc_llconf
                0x000000000801808c        0x4 contiki-evb1000.a(sicslowpan.o)
                0x000000000801808c                unc_llconf
 .rodata.unc_mxconf
                0x0000000008018090        0x4 contiki-evb1000.a(sicslowpan.o)
                0x0000000008018090                unc_mxconf
 .rodata.uip_debug_ipaddr_print.str1.4
                0x0000000008018094       0x2b contiki-evb1000.a(uip-debug.o)
 *fill*         0x00000000080180bf        0x1 
 .rodata.csma_driver
                0x00000000080180c0       0x1c contiki-evb1000.a(csma.o)
                0x00000000080180c0                csma_driver
 .rodata.str1.4
                0x00000000080180dc        0x5 contiki-evb1000.a(csma.o)
 *fill*         0x00000000080180e1        0x3 
 .rodata.framer_802154
                0x00000000080180e4        0xc contiki-evb1000.a(framer-802154.o)
                0x00000000080180e4                framer_802154
 .rodata.str1.4
                0x00000000080180f0        0x2 /usr/lib/gcc/arm-none-eabi/6.3.1/../../../arm-none-eabi/lib/libc.a(lib_a-impure.o)
 *fill*         0x00000000080180f2        0x2 
 .rodata.str1.4
                0x00000000080180f4        0x2 /usr/lib/gcc/arm-none-eabi/6.3.1/../../../arm-none-eabi/lib/libc.a(lib_a-puts.o)
 *fill*         0x00000000080180f6        0x2 
 .rodata.str1.4
                0x00000000080180f8       0x42 /usr/lib/gcc/arm-none-eabi/6.3.1/../../../arm-none-eabi/lib/libc.a(lib_a-vfprintf.o)
 *fill*         0x000000000801813a        0x2 
 .rodata.str1.4
                0x000000000801813c       0x10 /usr/lib/gcc/arm-none-eabi/6.3.1/../../../arm-none-eabi/lib/libc.a(lib_a-dtoa.o)
                                         0x12 (size before relaxing)
 .rodata.str1.4
                0x000000000801814c        0xc /usr/lib/gcc/arm-none-eabi/6.3.1/../../../arm-none-eabi/lib/libc.a(lib_a-locale.o)
                                         0x12 (size before relaxing)
 .rodata.str1.4
                0x0000000008018158       0x2f /usr/lib/gcc/arm-none-eabi/6.3.1/../../../arm-none-eabi/lib/libc.a(lib_a-vfiprintf.o)
 *(.glue_7)
 .glue_7        0x0000000008018158        0x0 linker stubs
 *(.glue_7t)
 .glue_7t       0x0000000008018158        0x0 linker stubs
 *(.eh_frame)
 .eh_frame      0x0000000008018158        0x0 /usr/lib/gcc/arm-none-eabi/6.3.1/thumb/v7-m/crtbegin.o
 *(.init)
 .init          0x0000000008018158        0x4 /usr/lib/gcc/arm-none-eabi/6.3.1/thumb/v7-m/crti.o
                0x0000000008018158                _init
 .init          0x000000000801815c        0x8 /usr/lib/gcc/arm-none-eabi/6.3.1/thumb/v7-m/crtn.o
 *(.fini)
 .fini          0x0000000008018164        0x4 /usr/lib/gcc/arm-none-eabi/6.3.1/thumb/v7-m/crti.o
                0x0000000008018164                _fini
 .fini          0x0000000008018168        0x8 /usr/lib/gcc/arm-none-eabi/6.3.1/thumb/v7-m/crtn.o
                0x0000000008018188                . = ALIGN (0x4)
                0x0000000008018188                _etext = .

.vfp11_veneer   0x0000000008018170        0x0
 .vfp11_veneer  0x0000000008018170        0x0 linker stubs

.v4_bx          0x0000000008018170        0x0
 .v4_bx         0x0000000008018170        0x0 linker stubs

.iplt           0x0000000008018170        0x0
 .iplt          0x0000000008018170        0x0 /usr/lib/gcc/arm-none-eabi/6.3.1/thumb/v7-m/crtbegin.o

.ARM.extab
 *(.ARM.extab* .gnu.linkonce.armextab.*)

.ARM            0x0000000008018170        0x8
                0x0000000008018170                __exidx_start = .
 *(.ARM.exidx*)
 .ARM.exidx     0x0000000008018170        0x8 /usr/lib/gcc/arm-none-eabi/6.3.1/thumb/v7-m/libgcc.a(_udivmoddi4.o)
                0x0000000008018178                __exidx_end = .

.rel.dyn        0x0000000008018178        0x0
 .rel.iplt      0x0000000008018178        0x0 /usr/lib/gcc/arm-none-eabi/6.3.1/thumb/v7-m/crtbegin.o

.preinit_array  0x0000000008018178        0x0
                0x0000000008018178                PROVIDE (__preinit_array_start, .)
 *(.preinit_array*)
                0x0000000008018178                PROVIDE (__preinit_array_end, .)

.init_array     0x0000000008018178        0x8
                0x0000000008018178                PROVIDE (__init_array_start, .)
 *(SORT(.init_array.*))
 .init_array.00000
                0x0000000008018178        0x4 /usr/lib/gcc/arm-none-eabi/6.3.1/../../../arm-none-eabi/lib/libc.a(lib_a-__call_atexit.o)
 *(.init_array*)
 .init_array    0x000000000801817c        0x4 /usr/lib/gcc/arm-none-eabi/6.3.1/thumb/v7-m/crtbegin.o
                0x0000000008018180                PROVIDE (__init_array_end, .)

.fini_array     0x0000000008018180        0x4
                0x0000000008018180                PROVIDE (__fini_array_start, .)
 *(.fini_array*)
 .fini_array    0x0000000008018180        0x4 /usr/lib/gcc/arm-none-eabi/6.3.1/thumb/v7-m/crtbegin.o
 *(SORT(.fini_array.*))
                0x0000000008018184                PROVIDE (__fini_array_end, .)
                0x0000000008018184                _sidata = .

.data           0x0000000020000000      0xb90 load address 0x0000000008018184
                0x0000000020000000                . = ALIGN (0x4)
                0x0000000020000000                _sdata = .
 *(.data)
 .data          0x0000000020000000      0x430 /usr/lib/gcc/arm-none-eabi/6.3.1/../../../arm-none-eabi/lib/libc.a(lib_a-impure.o)
                0x0000000020000000                _impure_ptr
 .data          0x0000000020000430       0x7c /usr/lib/gcc/arm-none-eabi/6.3.1/../../../arm-none-eabi/lib/libc.a(lib_a-locale.o)
                0x0000000020000450                __mb_cur_max
 .data          0x00000000200004ac      0x410 /usr/lib/gcc/arm-none-eabi/6.3.1/../../../arm-none-eabi/lib/libc.a(lib_a-mallocr.o)
                0x00000000200004ac                __malloc_av_
                0x00000000200008b4                __malloc_sbrk_base
                0x00000000200008b8                __malloc_trim_threshold
 .data          0x00000000200008bc        0x4 /usr/lib/gcc/arm-none-eabi/6.3.1/../../../arm-none-eabi/lib/libc.a(lib_a-wctomb_r.o)
                0x00000000200008bc                __wctomb
 *(.data*)
 .data.hello_world_process
                0x00000000200008c0       0x10 hello-world.co
                0x00000000200008c0                hello_world_process
 .data.pdw1000local
                0x00000000200008d0        0x4 obj_evb1000/deca_device.o
 .data.dw1000_process
                0x00000000200008d4       0x10 obj_evb1000/dw1000.o
                0x00000000200008d4                dw1000_process
 .data.dw1000_rng_process
                0x00000000200008e4       0x10 obj_evb1000/dw1000-ranging.o
                0x00000000200008e4                dw1000_rng_process
 .data.SystemCoreClock
                0x00000000200008f4        0x4 obj_evb1000/system_stm32f10x.o
                0x00000000200008f4                SystemCoreClock
 .data.ADCPrescTable
                0x00000000200008f8        0x4 obj_evb1000/stm32f10x_rcc.o
 .data.APBAHBPrescTable
                0x00000000200008fc       0x10 obj_evb1000/stm32f10x_rcc.o
 .data.USBD_DCD_INT_cb
                0x000000002000090c       0x2c obj_evb1000/usbd_core.o
                0x000000002000090c                USBD_DCD_INT_cb
 .data.USBD_DCD_INT_fops
                0x0000000020000938        0x4 obj_evb1000/usbd_core.o
                0x0000000020000938                USBD_DCD_INT_fops
 .data.USBD_CDC_cb
                0x000000002000093c       0x2c obj_evb1000/usbd_cdc_core.o
                0x000000002000093c                USBD_CDC_cb
 .data.cdcCmd   0x0000000020000968        0x4 obj_evb1000/usbd_cdc_core.o
 .data.usbd_cdc_CfgDesc
                0x000000002000096c       0x43 obj_evb1000/usbd_cdc_core.o
                0x000000002000096c                usbd_cdc_CfgDesc
 *fill*         0x00000000200009af        0x1 
 .data.VCP_fops
                0x00000000200009b0       0x14 obj_evb1000/deca_usb.o
                0x00000000200009b0                VCP_fops
 .data.USBD_DeviceDesc
                0x00000000200009c4       0x12 obj_evb1000/usbd_desc.o
                0x00000000200009c4                USBD_DeviceDesc
 *fill*         0x00000000200009d6        0x2 
 .data.USBD_LangIDDesc
                0x00000000200009d8        0x4 obj_evb1000/usbd_desc.o
                0x00000000200009d8                USBD_LangIDDesc
 .data.USR_desc
                0x00000000200009dc       0x1c obj_evb1000/usbd_desc.o
                0x00000000200009dc                USR_desc
 .data.USR_cb   0x00000000200009f8       0x1c obj_evb1000/usbd_usr.o
                0x00000000200009f8                USR_cb
 .data.second_countdown
                0x0000000020000a14        0x4 obj_evb1000/clock.o
 .data.ctimer_process
                0x0000000020000a18       0x10 contiki-evb1000.a(ctimer.o)
                0x0000000020000a18                ctimer_process
 .data.etimer_process
                0x0000000020000a28       0x10 contiki-evb1000.a(etimer.o)
                0x0000000020000a28                etimer_process
 .data.serial_line_process
                0x0000000020000a38       0x10 contiki-evb1000.a(serial-line.o)
                0x0000000020000a38                serial_line_process
 .data.ns_input_handler
                0x0000000020000a48        0xc contiki-evb1000.a(uip-nd6.o)
 .data.tcpip_process
                0x0000000020000a54       0x10 contiki-evb1000.a(tcpip.o)
                0x0000000020000a54                tcpip_process
 .data.rpl_parents
                0x0000000020000a64        0x4 contiki-evb1000.a(rpl-dag.o)
                0x0000000020000a64                rpl_parents
 .data.rpl_parents_struct
                0x0000000020000a68       0x10 contiki-evb1000.a(rpl-dag.o)
 .data.rpl_mrhof
                0x0000000020000a78       0x24 contiki-evb1000.a(rpl-mrhof.o)
                0x0000000020000a78                rpl_mrhof
 .data.bufmem   0x0000000020000a9c        0xc contiki-evb1000.a(queuebuf.o)
 .data.buframmem
                0x0000000020000aa8        0xc contiki-evb1000.a(queuebuf.o)
 .data.neighbor_addr_mem
                0x0000000020000ab4        0xc contiki-evb1000.a(nbr-table.o)
 .data.link_stats_struct
                0x0000000020000ac0       0x10 contiki-evb1000.a(link-stats.o)
 .data.echo_reply_handler
                0x0000000020000ad0        0xc contiki-evb1000.a(uip-icmp6.o)
 .data.echo_request_handler
                0x0000000020000adc        0xc contiki-evb1000.a(uip-icmp6.o)
 .data.defaultroutermemb
                0x0000000020000ae8        0xc contiki-evb1000.a(uip-ds6-route.o)
 .data.nbr_routes
                0x0000000020000af4        0x4 contiki-evb1000.a(uip-ds6-route.o)
                0x0000000020000af4                nbr_routes
 .data.nbr_routes_struct
                0x0000000020000af8       0x10 contiki-evb1000.a(uip-ds6-route.o)
 .data.neighborroutememb
                0x0000000020000b08        0xc contiki-evb1000.a(uip-ds6-route.o)
 .data.routememb
                0x0000000020000b14        0xc contiki-evb1000.a(uip-ds6-route.o)
 .data.ds6_neighbors
                0x0000000020000b20        0x4 contiki-evb1000.a(uip-ds6-nbr.o)
                0x0000000020000b20                ds6_neighbors
 .data.ds6_neighbors_struct
                0x0000000020000b24       0x10 contiki-evb1000.a(uip-ds6-nbr.o)
 .data.dao_ack_handler
                0x0000000020000b34        0xc contiki-evb1000.a(rpl-icmp6.o)
 .data.dao_handler
                0x0000000020000b40        0xc contiki-evb1000.a(rpl-icmp6.o)
 .data.dao_sequence
                0x0000000020000b4c        0x1 contiki-evb1000.a(rpl-icmp6.o)
 *fill*         0x0000000020000b4d        0x3 
 .data.dio_handler
                0x0000000020000b50        0xc contiki-evb1000.a(rpl-icmp6.o)
 .data.dis_handler
                0x0000000020000b5c        0xc contiki-evb1000.a(rpl-icmp6.o)
 .data.metadata_memb
                0x0000000020000b68        0xc contiki-evb1000.a(csma.o)
 .data.neighbor_memb
                0x0000000020000b74        0xc contiki-evb1000.a(csma.o)
 .data.packet_memb
                0x0000000020000b80        0xc contiki-evb1000.a(csma.o)
 .data.mac_pan_id
                0x0000000020000b8c        0x2 contiki-evb1000.a(frame802154.o)
                0x0000000020000b90                . = ALIGN (0x4)
 *fill*         0x0000000020000b8e        0x2 
                0x0000000020000b90                _edata = .

.jcr            0x0000000020000b90        0x0 load address 0x0000000008018d14
 .jcr           0x0000000020000b90        0x0 /usr/lib/gcc/arm-none-eabi/6.3.1/thumb/v7-m/crtbegin.o

.tm_clone_table
                0x0000000020000b90        0x0 load address 0x0000000008018d14
 .tm_clone_table
                0x0000000020000b90        0x0 /usr/lib/gcc/arm-none-eabi/6.3.1/thumb/v7-m/crtbegin.o
 .tm_clone_table
                0x0000000020000b90        0x0 /usr/lib/gcc/arm-none-eabi/6.3.1/thumb/v7-m/crtend.o

.igot.plt       0x0000000020000b90        0x0 load address 0x0000000008018d14
 .igot.plt      0x0000000020000b90        0x0 /usr/lib/gcc/arm-none-eabi/6.3.1/thumb/v7-m/crtbegin.o
                0x0000000020000b90                . = ALIGN (0x4)

.bss            0x0000000020000b90     0x3f38 load address 0x0000000008018d18
                0x0000000020000b90                _sbss = .
                0x0000000020000b90                __bss_start__ = _sbss
 *(.bss)
 .bss           0x0000000020000b90       0x1c /usr/lib/gcc/arm-none-eabi/6.3.1/thumb/v7-m/crtbegin.o
 .bss           0x0000000020000bac       0x34 /usr/lib/gcc/arm-none-eabi/6.3.1/../../../arm-none-eabi/lib/libc.a(lib_a-mallocr.o)
                0x0000000020000bac                __malloc_top_pad
                0x0000000020000bb0                __malloc_current_mallinfo
                0x0000000020000bd8                __malloc_max_sbrked_mem
                0x0000000020000bdc                __malloc_max_total_mem
 *(.bss*)
 .bss.c         0x0000000020000be0        0x1 obj_evb1000/leds-arch.o
 *fill*         0x0000000020000be1        0x3 
 .bss.inited    0x0000000020000be4        0x4 obj_evb1000/leds-arch.o
 .bss.heap_end.7958
                0x0000000020000be8        0x4 obj_evb1000/syscalls.o
 .bss.dw1000_isr
                0x0000000020000bec        0x4 obj_evb1000/dw1000-arch.o
                0x0000000020000bec                dw1000_isr
 .bss.dw1000local
                0x0000000020000bf0       0x38 obj_evb1000/deca_device.o
 .bss.auto_ack_enabled
                0x0000000020000c28        0x1 obj_evb1000/dw1000.o
 *fill*         0x0000000020000c29        0x1 
 .bss.data_len  0x0000000020000c2a        0x2 obj_evb1000/dw1000.o
 .bss.frame_pending
                0x0000000020000c2c        0x1 obj_evb1000/dw1000.o
 *fill*         0x0000000020000c2d        0x3 
 .bss.rxTime    0x0000000020000c30        0x8 obj_evb1000/dw1000.o
 .bss.tx_done   0x0000000020000c38        0x1 obj_evb1000/dw1000.o
 .bss.wait_ack_txdone
                0x0000000020000c39        0x1 obj_evb1000/dw1000.o
 *fill*         0x0000000020000c3a        0x2 
 .bss.abort_timer.8891
                0x0000000020000c3c       0x10 obj_evb1000/dw1000-ranging.o
 .bss.ranging_ant_delay
                0x0000000020000c4c        0x4 obj_evb1000/dw1000-ranging.o
 .bss.ranging_conf
                0x0000000020000c50       0x1c obj_evb1000/dw1000-ranging.o
 *fill*         0x0000000020000c6c        0x4 
 .bss.ranging_data
                0x0000000020000c70       0x18 obj_evb1000/dw1000-ranging.o
 .bss.rng_type  0x0000000020000c88        0x1 obj_evb1000/dw1000-ranging.o
 .bss.state     0x0000000020000c89        0x1 obj_evb1000/dw1000-ranging.o
 *fill*         0x0000000020000c8a        0x2 
 .bss.tx_buf    0x0000000020000c8c       0x18 obj_evb1000/dw1000-ranging.o
 .bss.USBD_cfg_status
                0x0000000020000ca4        0x4 obj_evb1000/usbd_req.o
                0x0000000020000ca4                USBD_cfg_status
 .bss.USBD_default_cfg
                0x0000000020000ca8        0x4 obj_evb1000/usbd_req.o
                0x0000000020000ca8                USBD_default_cfg
 .bss.USBD_ep_status
                0x0000000020000cac        0x4 obj_evb1000/usbd_req.o
                0x0000000020000cac                USBD_ep_status
 .bss.cfgidx.7684
                0x0000000020000cb0        0x1 obj_evb1000/usbd_req.o
 *fill*         0x0000000020000cb1        0x3 
 .bss.APP_Rx_length
                0x0000000020000cb4        0x4 obj_evb1000/usbd_cdc_core.o
                0x0000000020000cb4                APP_Rx_length
 .bss.APP_Rx_ptr_in
                0x0000000020000cb8        0x4 obj_evb1000/usbd_cdc_core.o
                0x0000000020000cb8                APP_Rx_ptr_in
 .bss.APP_Rx_ptr_out
                0x0000000020000cbc        0x4 obj_evb1000/usbd_cdc_core.o
                0x0000000020000cbc                APP_Rx_ptr_out
 .bss.FrameCount.7676
                0x0000000020000cc0        0x4 obj_evb1000/usbd_cdc_core.o
 .bss.USB_Tx_State
                0x0000000020000cc4        0x1 obj_evb1000/usbd_cdc_core.o
                0x0000000020000cc4                USB_Tx_State
 *fill*         0x0000000020000cc5        0x3 
 .bss.cdcLen    0x0000000020000cc8        0x4 obj_evb1000/usbd_cdc_core.o
 .bss.usbd_cdc_AltSet
                0x0000000020000ccc        0x4 obj_evb1000/usbd_cdc_core.o
 .bss.current_clock
                0x0000000020000cd0        0x4 obj_evb1000/clock.o
 .bss.current_seconds
                0x0000000020000cd4        0x4 obj_evb1000/clock.o
 .bss.ctimer_list_list
                0x0000000020000cd8        0x4 contiki-evb1000.a(ctimer.o)
 .bss.initialized
                0x0000000020000cdc        0x1 contiki-evb1000.a(ctimer.o)
 *fill*         0x0000000020000cdd        0x3 
 .bss.next_expiration
                0x0000000020000ce0        0x4 contiki-evb1000.a(etimer.o)
 .bss.timerlist
                0x0000000020000ce4        0x4 contiki-evb1000.a(etimer.o)
 .bss.events    0x0000000020000ce8      0x180 contiki-evb1000.a(process.o)
 .bss.fevent    0x0000000020000e68        0x1 contiki-evb1000.a(process.o)
 .bss.lastevent
                0x0000000020000e69        0x1 contiki-evb1000.a(process.o)
 .bss.nevents   0x0000000020000e6a        0x1 contiki-evb1000.a(process.o)
 .bss.poll_requested
                0x0000000020000e6b        0x1 contiki-evb1000.a(process.o)
 .bss.process_current
                0x0000000020000e6c        0x4 contiki-evb1000.a(process.o)
                0x0000000020000e6c                process_current
 .bss.process_list
                0x0000000020000e70        0x4 contiki-evb1000.a(process.o)
                0x0000000020000e70                process_list
 .bss.next_rtimer
                0x0000000020000e74        0x4 contiki-evb1000.a(rtimer.o)
 .bss.buf.4747  0x0000000020000e78       0x80 contiki-evb1000.a(serial-line.o)
 .bss.overflow.4741
                0x0000000020000ef8        0x1 contiki-evb1000.a(serial-line.o)
 *fill*         0x0000000020000ef9        0x3 
 .bss.ptr.4748  0x0000000020000efc        0x4 contiki-evb1000.a(serial-line.o)
 .bss.rxbuf     0x0000000020000f00        0x8 contiki-evb1000.a(serial-line.o)
 .bss.rxbuf_data
                0x0000000020000f08       0x80 contiki-evb1000.a(serial-line.o)
 .bss.leds      0x0000000020000f88        0x1 contiki-evb1000.a(leds.o)
 *fill*         0x0000000020000f89        0x3 
 .bss.iss       0x0000000020000f8c        0x4 contiki-evb1000.a(uip6.o)
 .bss.lastport  0x0000000020000f90        0x2 contiki-evb1000.a(uip6.o)
 .bss.uip_ext_bitmap
                0x0000000020000f92        0x1 contiki-evb1000.a(uip6.o)
                0x0000000020000f92                uip_ext_bitmap
 .bss.uip_ext_len
                0x0000000020000f93        0x1 contiki-evb1000.a(uip6.o)
                0x0000000020000f93                uip_ext_len
 .bss.uip_ext_opt_offset
                0x0000000020000f94        0x1 contiki-evb1000.a(uip6.o)
                0x0000000020000f94                uip_ext_opt_offset
 *fill*         0x0000000020000f95        0x3 
 .bss.addr      0x0000000020000f98        0x4 contiki-evb1000.a(uip-nd6.o)
 .bss.nbr       0x0000000020000f9c        0x4 contiki-evb1000.a(uip-nd6.o)
 .bss.nd6_opt_llao
                0x0000000020000fa0        0x4 contiki-evb1000.a(uip-nd6.o)
 .bss.nd6_opt_offset
                0x0000000020000fa4        0x1 contiki-evb1000.a(uip-nd6.o)
 *fill*         0x0000000020000fa5        0x3 
 .bss.outputfunc
                0x0000000020000fa8        0x4 contiki-evb1000.a(tcpip.o)
 .bss.periodic  0x0000000020000fac       0x10 contiki-evb1000.a(tcpip.o)
 .bss.s         0x0000000020000fbc       0x44 contiki-evb1000.a(tcpip.o)
 .bss._rpl_parents_mem
                0x0000000020001000       0x80 contiki-evb1000.a(rpl-dag.o)
 .bss.dio_send_ok
                0x0000000020001080        0x1 contiki-evb1000.a(rpl-timers.o)
 *fill*         0x0000000020001081        0x1 
 .bss.next_dis  0x0000000020001082        0x2 contiki-evb1000.a(rpl-timers.o)
 .bss.periodic_timer
                0x0000000020001084       0x20 contiki-evb1000.a(rpl-timers.o)
 .bss.mode      0x00000000200010a4        0x1 contiki-evb1000.a(rpl.o)
 *fill*         0x00000000200010a5        0x3 
 .bss.bufmem_memb_count
                0x00000000200010a8        0x8 contiki-evb1000.a(queuebuf.o)
 .bss.bufmem_memb_mem
                0x00000000200010b0       0x20 contiki-evb1000.a(queuebuf.o)
 .bss.buframmem_memb_count
                0x00000000200010d0        0x8 contiki-evb1000.a(queuebuf.o)
 .bss.buframmem_memb_mem
                0x00000000200010d8      0x580 contiki-evb1000.a(queuebuf.o)
 .bss.all_tables
                0x0000000020001658       0x20 contiki-evb1000.a(nbr-table.o)
 .bss.locked_map
                0x0000000020001678       0x10 contiki-evb1000.a(nbr-table.o)
 .bss.nbr_table_keys_list
                0x0000000020001688        0x4 contiki-evb1000.a(nbr-table.o)
 .bss.neighbor_addr_mem_memb_count
                0x000000002000168c       0x10 contiki-evb1000.a(nbr-table.o)
 .bss.neighbor_addr_mem_memb_mem
                0x000000002000169c       0xc0 contiki-evb1000.a(nbr-table.o)
 .bss.num_tables
                0x000000002000175c        0x4 contiki-evb1000.a(nbr-table.o)
 .bss.used_map  0x0000000020001760       0x10 contiki-evb1000.a(nbr-table.o)
 .bss.buflen    0x0000000020001770        0x2 contiki-evb1000.a(packetbuf.o)
 .bss.bufptr    0x0000000020001772        0x2 contiki-evb1000.a(packetbuf.o)
 .bss.hdrlen    0x0000000020001774        0x1 contiki-evb1000.a(packetbuf.o)
 *fill*         0x0000000020001775        0x3 
 .bss.packetbuf_aligned
                0x0000000020001778       0x80 contiki-evb1000.a(packetbuf.o)
 .bss._link_stats_mem
                0x00000000200017f8       0xc0 contiki-evb1000.a(link-stats.o)
 .bss.echo_reply_callback_list_list
                0x00000000200018b8        0x4 contiki-evb1000.a(uip-icmp6.o)
 .bss.input_handler_list_list
                0x00000000200018bc        0x4 contiki-evb1000.a(uip-icmp6.o)
 .bss.tmp_ipaddr
                0x00000000200018c0       0x10 contiki-evb1000.a(uip-icmp6.o)
 .bss.loc_fipaddr
                0x00000000200018d0       0x10 contiki-evb1000.a(uip-ds6.o)
 .bss.locaddr   0x00000000200018e0        0x4 contiki-evb1000.a(uip-ds6.o)
 .bss.locmaddr  0x00000000200018e4        0x4 contiki-evb1000.a(uip-ds6.o)
 .bss.locprefix
                0x00000000200018e8        0x4 contiki-evb1000.a(uip-ds6.o)
 .bss._nbr_routes_mem
                0x00000000200018ec       0x80 contiki-evb1000.a(uip-ds6-route.o)
 .bss.defaultrouterlist_list
                0x000000002000196c        0x4 contiki-evb1000.a(uip-ds6-route.o)
 .bss.defaultroutermemb_memb_count
                0x0000000020001970        0x2 contiki-evb1000.a(uip-ds6-route.o)
 *fill*         0x0000000020001972        0x2 
 .bss.defaultroutermemb_memb_mem
                0x0000000020001974       0x40 contiki-evb1000.a(uip-ds6-route.o)
 .bss.neighborroutememb_memb_count
                0x00000000200019b4       0x10 contiki-evb1000.a(uip-ds6-route.o)
 .bss.neighborroutememb_memb_mem
                0x00000000200019c4       0x80 contiki-evb1000.a(uip-ds6-route.o)
 .bss.notificationlist_list
                0x0000000020001a44        0x4 contiki-evb1000.a(uip-ds6-route.o)
 .bss.num_routes
                0x0000000020001a48        0x4 contiki-evb1000.a(uip-ds6-route.o)
 .bss.routelist_list
                0x0000000020001a4c        0x4 contiki-evb1000.a(uip-ds6-route.o)
 .bss.routememb_memb_count
                0x0000000020001a50       0x10 contiki-evb1000.a(uip-ds6-route.o)
 .bss.routememb_memb_mem
                0x0000000020001a60      0x280 contiki-evb1000.a(uip-ds6-route.o)
 .bss._ds6_neighbors_mem
                0x0000000020001ce0      0x120 contiki-evb1000.a(uip-ds6-nbr.o)
 .bss.addr_contexts
                0x0000000020001e00        0xa contiki-evb1000.a(sicslowpan.o)
 *fill*         0x0000000020001e0a        0x2 
 .bss.callback  0x0000000020001e0c        0x4 contiki-evb1000.a(sicslowpan.o)
 .bss.context   0x0000000020001e10        0x4 contiki-evb1000.a(sicslowpan.o)
 .bss.frag_buf  0x0000000020001e14      0x54c contiki-evb1000.a(sicslowpan.o)
 .bss.frag_info
                0x0000000020002360      0x170 contiki-evb1000.a(sicslowpan.o)
 .bss.hc06_ptr  0x00000000200024d0        0x4 contiki-evb1000.a(sicslowpan.o)
 .bss.last_rssi
                0x00000000200024d4        0x4 contiki-evb1000.a(sicslowpan.o)
 .bss.last_tx_status
                0x00000000200024d8        0x4 contiki-evb1000.a(sicslowpan.o)
 .bss.my_tag    0x00000000200024dc        0x2 contiki-evb1000.a(sicslowpan.o)
 .bss.packetbuf_hdr_len
                0x00000000200024de        0x1 contiki-evb1000.a(sicslowpan.o)
 *fill*         0x00000000200024df        0x1 
 .bss.packetbuf_payload_len
                0x00000000200024e0        0x4 contiki-evb1000.a(sicslowpan.o)
 .bss.packetbuf_ptr
                0x00000000200024e4        0x4 contiki-evb1000.a(sicslowpan.o)
 .bss.uncomp_hdr_len
                0x00000000200024e8        0x1 contiki-evb1000.a(sicslowpan.o)
 *fill*         0x00000000200024e9        0x3 
 .bss.num_children
                0x00000000200024ec        0x4 contiki-evb1000.a(rpl-nbr-policy.)
 .bss.num_parents
                0x00000000200024f0        0x4 contiki-evb1000.a(rpl-nbr-policy.)
 .bss.periodic_timer
                0x00000000200024f4       0x20 contiki-evb1000.a(rpl-nbr-policy.)
 .bss.timer_init
                0x0000000020002514        0x4 contiki-evb1000.a(rpl-nbr-policy.)
 .bss.worst_rank
                0x0000000020002518        0x2 contiki-evb1000.a(rpl-nbr-policy.)
 *fill*         0x000000002000251a        0x2 
 .bss.worst_rank_nbr
                0x000000002000251c        0x4 contiki-evb1000.a(rpl-nbr-policy.)
 .bss.received_seqnos
                0x0000000020002520      0x100 contiki-evb1000.a(mac-sequence.o)
 .bss.initialized.6323
                0x0000000020002620        0x1 contiki-evb1000.a(csma.o)
 *fill*         0x0000000020002621        0x3 
 .bss.metadata_memb_memb_count
                0x0000000020002624        0x8 contiki-evb1000.a(csma.o)
 .bss.metadata_memb_memb_mem
                0x000000002000262c       0x60 contiki-evb1000.a(csma.o)
 .bss.neighbor_list_list
                0x000000002000268c        0x4 contiki-evb1000.a(csma.o)
 .bss.neighbor_memb_memb_count
                0x0000000020002690        0x2 contiki-evb1000.a(csma.o)
 *fill*         0x0000000020002692        0x2 
 .bss.neighbor_memb_memb_mem
                0x0000000020002694       0x70 contiki-evb1000.a(csma.o)
 .bss.packet_memb_memb_count
                0x0000000020002704        0x8 contiki-evb1000.a(csma.o)
 .bss.packet_memb_memb_mem
                0x000000002000270c       0x60 contiki-evb1000.a(csma.o)
 .bss.seqno.6324
                0x000000002000276c        0x2 contiki-evb1000.a(csma.o)
 .bss.initialized
                0x000000002000276e        0x1 contiki-evb1000.a(framer-802154.o)
 .bss.mac_dsn   0x000000002000276f        0x1 contiki-evb1000.a(framer-802154.o)
 *(COMMON)
 COMMON         0x0000000020002770       0x30 obj_evb1000/dw1000-ranging.o
                0x0000000020002770                ss_poll_tx_ts
                0x0000000020002774                ds_poll_rx_ts
                0x0000000020002778                ss_poll_rx_ts
                0x000000002000277c                ds_poll_tx_ts
                0x0000000020002780                ss_resp_tx_ts
                0x0000000020002784                ds_resp_rx_ts
                0x0000000020002788                ds_final_rx_ts
                0x000000002000278c                ranging_event
                0x0000000020002790                req_process
                0x0000000020002794                ds_final_tx_ts
                0x0000000020002798                ss_resp_rx_ts
                0x000000002000279c                ds_resp_tx_ts
 COMMON         0x00000000200027a0        0x4 obj_evb1000/usbd_core.o
                0x00000000200027a0                SET_TEST_MODE
 COMMON         0x00000000200027a4     0x108c obj_evb1000/usbd_cdc_core.o
                0x00000000200027a4                usbd_cdc_OtherCfgDesc
                0x00000000200027e8                USB_Rx_Buffer
                0x0000000020002828                CmdBuff
                0x0000000020002830                APP_Rx_Buffer
 COMMON         0x0000000020003830      0x5f4 obj_evb1000/deca_usb.o
                0x0000000020003830                USB_OTG_dev
 COMMON         0x0000000020003e24       0xff obj_evb1000/usbd_desc.o
                0x0000000020003e24                USBD_StrDesc
 COMMON         0x0000000020003f23        0x1 contiki-evb1000.a(serial-line.o)
                0x0000000020003f23                serial_line_event_message
 COMMON         0x0000000020003f24      0x878 contiki-evb1000.a(uip6.o)
                0x0000000020003f24                uip_len
                0x0000000020003f28                uip_sappdata
                0x0000000020003f2c                uip_acc32
                0x0000000020003f30                uip_lladdr
                0x0000000020003f38                uip_aligned_buf
                0x000000002000444c                uip_flags
                0x0000000020004450                uip_next_hdr
                0x0000000020004454                uip_udp_conn
                0x0000000020004458                uip_appdata
                0x000000002000445c                uip_conn
                0x0000000020004460                uip_conns
                0x0000000020004640                uip_icmp6_conns
                0x0000000020004648                uip_listenports
                0x0000000020004658                uip_slen
                0x000000002000465c                uip_udp_conns
 COMMON         0x000000002000479c        0x2 contiki-evb1000.a(tcpip.o)
                0x000000002000479c                tcpip_event
                0x000000002000479d                tcpip_icmp6_event
 *fill*         0x000000002000479e        0x2 
 COMMON         0x00000000200047a0      0x158 contiki-evb1000.a(rpl-dag.o)
                0x00000000200047a0                default_instance
                0x00000000200047a4                instance_table
 COMMON         0x00000000200048f8       0x2e contiki-evb1000.a(packetbuf.o)
                0x00000000200048f8                packetbuf_addrs
                0x0000000020004908                packetbuf_attrs
 *fill*         0x0000000020004926        0x2 
 COMMON         0x0000000020004928        0x8 contiki-evb1000.a(linkaddr.o)
                0x0000000020004928                linkaddr_node_addr
 COMMON         0x0000000020004930       0x20 contiki-evb1000.a(link-stats.o)
                0x0000000020004930                periodic_timer
 COMMON         0x0000000020004950      0x174 contiki-evb1000.a(uip-ds6.o)
                0x0000000020004950                uip_ds6_timer_ra
                0x0000000020004958                uip_ds6_if
                0x0000000020004a50                uip_ds6_netif_addr_list_offset
                0x0000000020004a51                uip_ds6_addr_size
                0x0000000020004a54                uip_ds6_prefix_list
                0x0000000020004ab4                uip_ds6_timer_periodic
 COMMON         0x0000000020004ac4        0x4 /usr/lib/gcc/arm-none-eabi/6.3.1/../../../arm-none-eabi/lib/libc.a(lib_a-reent.o)
                0x0000000020004ac4                errno
                0x0000000020004ac8                . = ALIGN (0x4)
                0x0000000020004ac8                _ebss = .
                0x0000000020004ac8                __bss_end__ = _ebss
                [!provide]                        PROVIDE (end, _ebss)
                [!provide]                        PROVIDE (_end, _ebss)

._user_heap_stack
                0x0000000020004ac8      0x800 load address 0x000000000801cc50
                0x0000000020004ac8                . = ALIGN (0x4)
                0x0000000020004ac8                _user_heap_start = .
                0x0000000020004ec8                . = (. + _Min_Heap_Size)
 *fill*         0x0000000020004ac8      0x400 
                0x0000000020004ec8                _user_heap_end = .
                0x00000000200052c8                . = (. + _Min_Stack_Size)
 *fill*         0x0000000020004ec8      0x400 
                0x00000000200052c8                . = ALIGN (0x4)
                [!provide]                        PROVIDE (heap_start, _user_heap_start)
                [!provide]                        PROVIDE (_heap_start, _user_heap_start)
                [!provide]                        PROVIDE (heap_end, _user_heap_end)
                [!provide]                        PROVIDE (_heap_end, _user_heap_end)

.memory_b1_text
 *(.mb1text)
 *(.mb1text*)
 *(.mb1rodata)
 *(.mb1rodata*)

/DISCARD/
 libc.a(*)
 libm.a(*)
 libgcc.a(*)

.ARM.attributes
                0x0000000000000000       0x2b
 *(.ARM.attributes)
 .ARM.attributes
                0x0000000000000000       0x1d /usr/lib/gcc/arm-none-eabi/6.3.1/thumb/v7-m/crti.o
 .ARM.attributes
                0x000000000000001d       0x2d /usr/lib/gcc/arm-none-eabi/6.3.1/thumb/v7-m/crtbegin.o
 .ARM.attributes
                0x000000000000004a       0x21 /tmp/cc6EDpDG.o
 .ARM.attributes
                0x000000000000006b       0x33 hello-world.co
 .ARM.attributes
                0x000000000000009e       0x33 obj_evb1000/contiki-main.o
 .ARM.attributes
                0x00000000000000d1       0x33 obj_evb1000/board.o
 .ARM.attributes
                0x0000000000000104       0x33 obj_evb1000/leds-arch.o
 .ARM.attributes
                0x0000000000000137       0x33 obj_evb1000/lcd.o
 .ARM.attributes
                0x000000000000016a       0x33 obj_evb1000/stm32f10x_it.o
 .ARM.attributes
                0x000000000000019d       0x33 obj_evb1000/syscalls.o
 .ARM.attributes
                0x00000000000001d0       0x33 obj_evb1000/dw1000-arch.o
 .ARM.attributes
                0x0000000000000203       0x33 obj_evb1000/deca_device.o
 .ARM.attributes
                0x0000000000000236       0x33 obj_evb1000/deca_params_init.o
 .ARM.attributes
                0x0000000000000269       0x33 obj_evb1000/deca_range_tables.o
 .ARM.attributes
                0x000000000000029c       0x33 obj_evb1000/dw1000.o
 .ARM.attributes
                0x00000000000002cf       0x33 obj_evb1000/dw1000-ranging.o
 .ARM.attributes
                0x0000000000000302       0x33 obj_evb1000/system_stm32f10x.o
 .ARM.attributes
                0x0000000000000335       0x33 obj_evb1000/core_cm3.o
 .ARM.attributes
                0x0000000000000368       0x33 obj_evb1000/misc.o
 .ARM.attributes
                0x000000000000039b       0x33 obj_evb1000/stm32f10x_gpio.o
 .ARM.attributes
                0x00000000000003ce       0x33 obj_evb1000/stm32f10x_rcc.o
 .ARM.attributes
                0x0000000000000401       0x33 obj_evb1000/stm32f10x_exti.o
 .ARM.attributes
                0x0000000000000434       0x33 obj_evb1000/stm32f10x_rtc.o
 .ARM.attributes
                0x0000000000000467       0x33 obj_evb1000/stm32f10x_bkp.o
 .ARM.attributes
                0x000000000000049a       0x33 obj_evb1000/stm32f10x_flash.o
 .ARM.attributes
                0x00000000000004cd       0x33 obj_evb1000/stm32f10x_iwdg.o
 .ARM.attributes
                0x0000000000000500       0x33 obj_evb1000/stm32f10x_pwr.o
 .ARM.attributes
                0x0000000000000533       0x33 obj_evb1000/stm32f10x_spi.o
 .ARM.attributes
                0x0000000000000566       0x33 obj_evb1000/usbd_core.o
 .ARM.attributes
                0x0000000000000599       0x33 obj_evb1000/usbd_ioreq.o
 .ARM.attributes
                0x00000000000005cc       0x33 obj_evb1000/usbd_req.o
 .ARM.attributes
                0x00000000000005ff       0x33 obj_evb1000/usbd_cdc_core.o
 .ARM.attributes
                0x0000000000000632       0x33 obj_evb1000/deca_usb.o
 .ARM.attributes
                0x0000000000000665       0x33 obj_evb1000/deca_usb_bsp_evk1000.o
 .ARM.attributes
                0x0000000000000698       0x33 obj_evb1000/usbd_desc.o
 .ARM.attributes
                0x00000000000006cb       0x33 obj_evb1000/usbd_usr.o
 .ARM.attributes
                0x00000000000006fe       0x33 obj_evb1000/usb_core.o
 .ARM.attributes
                0x0000000000000731       0x33 obj_evb1000/usb_dcd_int.o
 .ARM.attributes
                0x0000000000000764       0x33 obj_evb1000/usb_dcd.o
 .ARM.attributes
                0x0000000000000797       0x33 obj_evb1000/clock.o
 .ARM.attributes
                0x00000000000007ca       0x33 obj_evb1000/watchdog.o
 .ARM.attributes
                0x00000000000007fd       0x33 obj_evb1000/rtimer-arch.o
 .ARM.attributes
                0x0000000000000830       0x33 obj_evb1000/spix.o
 .ARM.attributes
                0x0000000000000863       0x33 contiki-evb1000.a(autostart.o)
 .ARM.attributes
                0x0000000000000896       0x33 contiki-evb1000.a(ctimer.o)
 .ARM.attributes
                0x00000000000008c9       0x33 contiki-evb1000.a(energest.o)
 .ARM.attributes
                0x00000000000008fc       0x33 contiki-evb1000.a(etimer.o)
 .ARM.attributes
                0x000000000000092f       0x33 contiki-evb1000.a(process.o)
 .ARM.attributes
                0x0000000000000962       0x33 contiki-evb1000.a(rtimer.o)
 .ARM.attributes
                0x0000000000000995       0x33 contiki-evb1000.a(timer.o)
 .ARM.attributes
                0x00000000000009c8       0x33 contiki-evb1000.a(serial-line.o)
 .ARM.attributes
                0x00000000000009fb       0x33 contiki-evb1000.a(leds.o)
 .ARM.attributes
                0x0000000000000a2e       0x33 contiki-evb1000.a(list.o)
 .ARM.attributes
                0x0000000000000a61       0x33 contiki-evb1000.a(ringbuf.o)
 .ARM.attributes
                0x0000000000000a94       0x33 contiki-evb1000.a(uip6.o)
 .ARM.attributes
                0x0000000000000ac7       0x33 contiki-evb1000.a(uip-nd6.o)
 .ARM.attributes
                0x0000000000000afa       0x33 contiki-evb1000.a(tcpip.o)
 .ARM.attributes
                0x0000000000000b2d       0x33 contiki-evb1000.a(rpl-dag.o)
 .ARM.attributes
                0x0000000000000b60       0x33 contiki-evb1000.a(rpl-timers.o)
 .ARM.attributes
                0x0000000000000b93       0x33 contiki-evb1000.a(rpl-ext-header.)
 .ARM.attributes
                0x0000000000000bc6       0x33 contiki-evb1000.a(rpl.o)
 .ARM.attributes
                0x0000000000000bf9       0x33 contiki-evb1000.a(rpl-mrhof.o)
 .ARM.attributes
                0x0000000000000c2c       0x33 contiki-evb1000.a(queuebuf.o)
 .ARM.attributes
                0x0000000000000c5f       0x33 contiki-evb1000.a(nbr-table.o)
 .ARM.attributes
                0x0000000000000c92       0x33 contiki-evb1000.a(packetbuf.o)
 .ARM.attributes
                0x0000000000000cc5       0x33 contiki-evb1000.a(netstack.o)
 .ARM.attributes
                0x0000000000000cf8       0x33 contiki-evb1000.a(linkaddr.o)
 .ARM.attributes
                0x0000000000000d2b       0x33 contiki-evb1000.a(link-stats.o)
 .ARM.attributes
                0x0000000000000d5e       0x33 contiki-evb1000.a(nullrdc.o)
 .ARM.attributes
                0x0000000000000d91       0x33 contiki-evb1000.a(nullsec.o)
 .ARM.attributes
                0x0000000000000dc4       0x33 contiki-evb1000.a(memb.o)
 .ARM.attributes
                0x0000000000000df7       0x33 contiki-evb1000.a(random.o)
 .ARM.attributes
                0x0000000000000e2a       0x33 contiki-evb1000.a(uip-icmp6.o)
 .ARM.attributes
                0x0000000000000e5d       0x33 contiki-evb1000.a(uip-ds6.o)
 .ARM.attributes
                0x0000000000000e90       0x33 contiki-evb1000.a(uip-ds6-route.o)
 .ARM.attributes
                0x0000000000000ec3       0x33 contiki-evb1000.a(uip-ds6-nbr.o)
 .ARM.attributes
                0x0000000000000ef6       0x33 contiki-evb1000.a(sicslowpan.o)
 .ARM.attributes
                0x0000000000000f29       0x33 contiki-evb1000.a(uip-debug.o)
 .ARM.attributes
                0x0000000000000f5c       0x33 contiki-evb1000.a(rpl-icmp6.o)
 .ARM.attributes
                0x0000000000000f8f       0x33 contiki-evb1000.a(rpl-nbr-policy.)
 .ARM.attributes
                0x0000000000000fc2       0x33 contiki-evb1000.a(mac-sequence.o)
 .ARM.attributes
                0x0000000000000ff5       0x33 contiki-evb1000.a(csma.o)
 .ARM.attributes
                0x0000000000001028       0x33 contiki-evb1000.a(frame802154.o)
 .ARM.attributes
                0x000000000000105b       0x33 contiki-evb1000.a(mac.o)
 .ARM.attributes
                0x000000000000108e       0x33 contiki-evb1000.a(framer-802154.o)
 .ARM.attributes
                0x00000000000010c1       0x33 contiki-evb1000.a(stimer.o)
 .ARM.attributes
                0x00000000000010f4       0x1d /usr/lib/gcc/arm-none-eabi/6.3.1/thumb/v7-m/libgcc.a(_arm_addsubdf3.o)
 .ARM.attributes
                0x0000000000001111       0x1d /usr/lib/gcc/arm-none-eabi/6.3.1/thumb/v7-m/libgcc.a(_arm_muldivdf3.o)
 .ARM.attributes
                0x000000000000112e       0x1d /usr/lib/gcc/arm-none-eabi/6.3.1/thumb/v7-m/libgcc.a(_arm_cmpdf2.o)
 .ARM.attributes
                0x000000000000114b       0x1d /usr/lib/gcc/arm-none-eabi/6.3.1/thumb/v7-m/libgcc.a(_arm_fixdfsi.o)
 .ARM.attributes
                0x0000000000001168       0x1d /usr/lib/gcc/arm-none-eabi/6.3.1/thumb/v7-m/libgcc.a(_arm_fixunsdfsi.o)
 .ARM.attributes
                0x0000000000001185       0x1d /usr/lib/gcc/arm-none-eabi/6.3.1/thumb/v7-m/libgcc.a(_arm_truncdfsf2.o)
 .ARM.attributes
                0x00000000000011a2       0x1d /usr/lib/gcc/arm-none-eabi/6.3.1/thumb/v7-m/libgcc.a(_arm_addsubsf3.o)
 .ARM.attributes
                0x00000000000011bf       0x2d /usr/lib/gcc/arm-none-eabi/6.3.1/thumb/v7-m/libgcc.a(_fixdfdi.o)
 .ARM.attributes
                0x00000000000011ec       0x2d /usr/lib/gcc/arm-none-eabi/6.3.1/thumb/v7-m/libgcc.a(_fixunsdfdi.o)
 .ARM.attributes
                0x0000000000001219       0x30 /usr/lib/gcc/arm-none-eabi/6.3.1/../../../arm-none-eabi/lib/libc.a(lib_a-atexit.o)
 .ARM.attributes
                0x0000000000001249       0x30 /usr/lib/gcc/arm-none-eabi/6.3.1/../../../arm-none-eabi/lib/libc.a(lib_a-fini.o)
 .ARM.attributes
                0x0000000000001279       0x30 /usr/lib/gcc/arm-none-eabi/6.3.1/../../../arm-none-eabi/lib/libc.a(lib_a-impure.o)
 .ARM.attributes
                0x00000000000012a9       0x30 /usr/lib/gcc/arm-none-eabi/6.3.1/../../../arm-none-eabi/lib/libc.a(lib_a-init.o)
 .ARM.attributes
                0x00000000000012d9       0x30 /usr/lib/gcc/arm-none-eabi/6.3.1/../../../arm-none-eabi/lib/libc.a(lib_a-memcmp.o)
 .ARM.attributes
                0x0000000000001309       0x30 /usr/lib/gcc/arm-none-eabi/6.3.1/../../../arm-none-eabi/lib/libc.a(lib_a-memcpy-stub.o)
 .ARM.attributes
                0x0000000000001339       0x30 /usr/lib/gcc/arm-none-eabi/6.3.1/../../../arm-none-eabi/lib/libc.a(lib_a-memmove.o)
 .ARM.attributes
                0x0000000000001369       0x30 /usr/lib/gcc/arm-none-eabi/6.3.1/../../../arm-none-eabi/lib/libc.a(lib_a-memset.o)
 .ARM.attributes
                0x0000000000001399       0x30 /usr/lib/gcc/arm-none-eabi/6.3.1/../../../arm-none-eabi/lib/libc.a(lib_a-printf.o)
 .ARM.attributes
                0x00000000000013c9       0x30 /usr/lib/gcc/arm-none-eabi/6.3.1/../../../arm-none-eabi/lib/libc.a(lib_a-putchar.o)
 .ARM.attributes
                0x00000000000013f9       0x30 /usr/lib/gcc/arm-none-eabi/6.3.1/../../../arm-none-eabi/lib/libc.a(lib_a-puts.o)
 .ARM.attributes
                0x0000000000001429       0x30 /usr/lib/gcc/arm-none-eabi/6.3.1/../../../arm-none-eabi/lib/libc.a(lib_a-rand.o)
 .ARM.attributes
                0x0000000000001459       0x30 /usr/lib/gcc/arm-none-eabi/6.3.1/../../../arm-none-eabi/lib/libc.a(lib_a-strlen-stub.o)
 .ARM.attributes
                0x0000000000001489       0x30 /usr/lib/gcc/arm-none-eabi/6.3.1/../../../arm-none-eabi/lib/libc.a(lib_a-vfprintf.o)
 .ARM.attributes
                0x00000000000014b9       0x30 /usr/lib/gcc/arm-none-eabi/6.3.1/../../../arm-none-eabi/lib/libc.a(lib_a-wsetup.o)
 .ARM.attributes
                0x00000000000014e9       0x30 /usr/lib/gcc/arm-none-eabi/6.3.1/../../../arm-none-eabi/lib/libc.a(lib_a-__atexit.o)
 .ARM.attributes
                0x0000000000001519       0x30 /usr/lib/gcc/arm-none-eabi/6.3.1/../../../arm-none-eabi/lib/libc.a(lib_a-__call_atexit.o)
 .ARM.attributes
                0x0000000000001549       0x30 /usr/lib/gcc/arm-none-eabi/6.3.1/../../../arm-none-eabi/lib/libc.a(lib_a-dtoa.o)
 .ARM.attributes
                0x0000000000001579       0x30 /usr/lib/gcc/arm-none-eabi/6.3.1/../../../arm-none-eabi/lib/libc.a(lib_a-fflush.o)
 .ARM.attributes
                0x00000000000015a9       0x30 /usr/lib/gcc/arm-none-eabi/6.3.1/../../../arm-none-eabi/lib/libc.a(lib_a-findfp.o)
 .ARM.attributes
                0x00000000000015d9       0x30 /usr/lib/gcc/arm-none-eabi/6.3.1/../../../arm-none-eabi/lib/libc.a(lib_a-freer.o)
 .ARM.attributes
                0x0000000000001609       0x30 /usr/lib/gcc/arm-none-eabi/6.3.1/../../../arm-none-eabi/lib/libc.a(lib_a-fvwrite.o)
 .ARM.attributes
                0x0000000000001639       0x30 /usr/lib/gcc/arm-none-eabi/6.3.1/../../../arm-none-eabi/lib/libc.a(lib_a-fwalk.o)
 .ARM.attributes
                0x0000000000001669       0x30 /usr/lib/gcc/arm-none-eabi/6.3.1/../../../arm-none-eabi/lib/libc.a(lib_a-locale.o)
 .ARM.attributes
                0x0000000000001699       0x30 /usr/lib/gcc/arm-none-eabi/6.3.1/../../../arm-none-eabi/lib/libc.a(lib_a-makebuf.o)
 .ARM.attributes
                0x00000000000016c9       0x30 /usr/lib/gcc/arm-none-eabi/6.3.1/../../../arm-none-eabi/lib/libc.a(lib_a-mallocr.o)
 .ARM.attributes
                0x00000000000016f9       0x30 /usr/lib/gcc/arm-none-eabi/6.3.1/../../../arm-none-eabi/lib/libc.a(lib_a-memchr-stub.o)
 .ARM.attributes
                0x0000000000001729       0x30 /usr/lib/gcc/arm-none-eabi/6.3.1/../../../arm-none-eabi/lib/libc.a(lib_a-mlock.o)
 .ARM.attributes
                0x0000000000001759       0x30 /usr/lib/gcc/arm-none-eabi/6.3.1/../../../arm-none-eabi/lib/libc.a(lib_a-mprec.o)
 .ARM.attributes
                0x0000000000001789       0x30 /usr/lib/gcc/arm-none-eabi/6.3.1/../../../arm-none-eabi/lib/libc.a(lib_a-putc.o)
 .ARM.attributes
                0x00000000000017b9       0x30 /usr/lib/gcc/arm-none-eabi/6.3.1/../../../arm-none-eabi/lib/libc.a(lib_a-reallocr.o)
 .ARM.attributes
                0x00000000000017e9       0x30 /usr/lib/gcc/arm-none-eabi/6.3.1/../../../arm-none-eabi/lib/libc.a(lib_a-sbrkr.o)
 .ARM.attributes
                0x0000000000001819       0x30 /usr/lib/gcc/arm-none-eabi/6.3.1/../../../arm-none-eabi/lib/libc.a(lib_a-stdio.o)
 .ARM.attributes
                0x0000000000001849       0x16 /usr/lib/gcc/arm-none-eabi/6.3.1/../../../arm-none-eabi/lib/libc.a(lib_a-strcmp.o)
 .ARM.attributes
                0x000000000000185f       0x30 /usr/lib/gcc/arm-none-eabi/6.3.1/../../../arm-none-eabi/lib/libc.a(lib_a-vfiprintf.o)
 .ARM.attributes
                0x000000000000188f       0x30 /usr/lib/gcc/arm-none-eabi/6.3.1/../../../arm-none-eabi/lib/libc.a(lib_a-wbuf.o)
 .ARM.attributes
                0x00000000000018bf       0x30 /usr/lib/gcc/arm-none-eabi/6.3.1/../../../arm-none-eabi/lib/libc.a(lib_a-writer.o)
 .ARM.attributes
                0x00000000000018ef       0x30 /usr/lib/gcc/arm-none-eabi/6.3.1/../../../arm-none-eabi/lib/libc.a(lib_a-callocr.o)
 .ARM.attributes
                0x000000000000191f       0x30 /usr/lib/gcc/arm-none-eabi/6.3.1/../../../arm-none-eabi/lib/libc.a(lib_a-closer.o)
 .ARM.attributes
                0x000000000000194f       0x30 /usr/lib/gcc/arm-none-eabi/6.3.1/../../../arm-none-eabi/lib/libc.a(lib_a-fclose.o)
 .ARM.attributes
                0x000000000000197f       0x30 /usr/lib/gcc/arm-none-eabi/6.3.1/../../../arm-none-eabi/lib/libc.a(lib_a-fputwc.o)
 .ARM.attributes
                0x00000000000019af       0x30 /usr/lib/gcc/arm-none-eabi/6.3.1/../../../arm-none-eabi/lib/libc.a(lib_a-fstatr.o)
 .ARM.attributes
                0x00000000000019df       0x30 /usr/lib/gcc/arm-none-eabi/6.3.1/../../../arm-none-eabi/lib/libc.a(lib_a-isattyr.o)
 .ARM.attributes
                0x0000000000001a0f       0x30 /usr/lib/gcc/arm-none-eabi/6.3.1/../../../arm-none-eabi/lib/libc.a(lib_a-lseekr.o)
 .ARM.attributes
                0x0000000000001a3f       0x30 /usr/lib/gcc/arm-none-eabi/6.3.1/../../../arm-none-eabi/lib/libc.a(lib_a-readr.o)
 .ARM.attributes
                0x0000000000001a6f       0x30 /usr/lib/gcc/arm-none-eabi/6.3.1/../../../arm-none-eabi/lib/libc.a(lib_a-reent.o)
 .ARM.attributes
                0x0000000000001a9f       0x30 /usr/lib/gcc/arm-none-eabi/6.3.1/../../../arm-none-eabi/lib/libc.a(lib_a-wcrtomb.o)
 .ARM.attributes
                0x0000000000001acf       0x30 /usr/lib/gcc/arm-none-eabi/6.3.1/../../../arm-none-eabi/lib/libc.a(lib_a-wctomb_r.o)
 .ARM.attributes
                0x0000000000001aff       0x1d /usr/lib/gcc/arm-none-eabi/6.3.1/thumb/v7-m/libgcc.a(_udivsi3.o)
 .ARM.attributes
                0x0000000000001b1c       0x1d /usr/lib/gcc/arm-none-eabi/6.3.1/thumb/v7-m/libgcc.a(_divsi3.o)
 .ARM.attributes
                0x0000000000001b39       0x1d /usr/lib/gcc/arm-none-eabi/6.3.1/thumb/v7-m/libgcc.a(_dvmd_tls.o)
 .ARM.attributes
                0x0000000000001b56       0x1d /usr/lib/gcc/arm-none-eabi/6.3.1/thumb/v7-m/libgcc.a(_arm_unorddf2.o)
 .ARM.attributes
                0x0000000000001b73       0x1d /usr/lib/gcc/arm-none-eabi/6.3.1/thumb/v7-m/libgcc.a(_aeabi_uldivmod.o)
 .ARM.attributes
                0x0000000000001b90       0x2d /usr/lib/gcc/arm-none-eabi/6.3.1/thumb/v7-m/libgcc.a(_udivmoddi4.o)
 .ARM.attributes
                0x0000000000001bbd       0x2d /usr/lib/gcc/arm-none-eabi/6.3.1/thumb/v7-m/crtend.o
 .ARM.attributes
                0x0000000000001bea       0x1d /usr/lib/gcc/arm-none-eabi/6.3.1/thumb/v7-m/crtn.o
OUTPUT(hello-world.elf elf32-littlearm)

.comment        0x0000000000000000       0x5c
 .comment       0x0000000000000000       0x31 /usr/lib/gcc/arm-none-eabi/6.3.1/thumb/v7-m/crtbegin.o
                                         0x32 (size before relaxing)
 .comment       0x0000000000000031       0x32 hello-world.co
 .comment       0x0000000000000031       0x32 obj_evb1000/contiki-main.o
 .comment       0x0000000000000031       0x32 obj_evb1000/board.o
 .comment       0x0000000000000031       0x32 obj_evb1000/leds-arch.o
 .comment       0x0000000000000031       0x32 obj_evb1000/lcd.o
 .comment       0x0000000000000031       0x32 obj_evb1000/stm32f10x_it.o
 .comment       0x0000000000000031       0x32 obj_evb1000/syscalls.o
 .comment       0x0000000000000031       0x32 obj_evb1000/dw1000-arch.o
 .comment       0x0000000000000031       0x32 obj_evb1000/deca_device.o
 .comment       0x0000000000000031       0x32 obj_evb1000/deca_params_init.o
 .comment       0x0000000000000031       0x32 obj_evb1000/deca_range_tables.o
 .comment       0x0000000000000031       0x32 obj_evb1000/dw1000.o
 .comment       0x0000000000000031       0x32 obj_evb1000/dw1000-ranging.o
 .comment       0x0000000000000031       0x32 obj_evb1000/system_stm32f10x.o
 .comment       0x0000000000000031       0x32 obj_evb1000/core_cm3.o
 .comment       0x0000000000000031       0x32 obj_evb1000/misc.o
 .comment       0x0000000000000031       0x32 obj_evb1000/stm32f10x_gpio.o
 .comment       0x0000000000000031       0x32 obj_evb1000/stm32f10x_rcc.o
 .comment       0x0000000000000031       0x32 obj_evb1000/stm32f10x_exti.o
 .comment       0x0000000000000031       0x32 obj_evb1000/stm32f10x_rtc.o
 .comment       0x0000000000000031       0x32 obj_evb1000/stm32f10x_bkp.o
 .comment       0x0000000000000031       0x32 obj_evb1000/stm32f10x_flash.o
 .comment       0x0000000000000031       0x32 obj_evb1000/stm32f10x_iwdg.o
 .comment       0x0000000000000031       0x32 obj_evb1000/stm32f10x_pwr.o
 .comment       0x0000000000000031       0x32 obj_evb1000/stm32f10x_spi.o
 .comment       0x0000000000000031       0x32 obj_evb1000/usbd_core.o
 .comment       0x0000000000000031       0x32 obj_evb1000/usbd_ioreq.o
 .comment       0x0000000000000031       0x32 obj_evb1000/usbd_req.o
 .comment       0x0000000000000031       0x32 obj_evb1000/usbd_cdc_core.o
 .comment       0x0000000000000031       0x32 obj_evb1000/deca_usb.o
 .comment       0x0000000000000031       0x32 obj_evb1000/deca_usb_bsp_evk1000.o
 .comment       0x0000000000000031       0x32 obj_evb1000/usbd_desc.o
 .comment       0x0000000000000031       0x32 obj_evb1000/usbd_usr.o
 .comment       0x0000000000000031       0x32 obj_evb1000/usb_core.o
 .comment       0x0000000000000031       0x32 obj_evb1000/usb_dcd_int.o
 .comment       0x0000000000000031       0x32 obj_evb1000/usb_dcd.o
 .comment       0x0000000000000031       0x32 obj_evb1000/clock.o
 .comment       0x0000000000000031       0x32 obj_evb1000/watchdog.o
 .comment       0x0000000000000031       0x32 obj_evb1000/rtimer-arch.o
 .comment       0x0000000000000031       0x32 obj_evb1000/spix.o
 .comment       0x0000000000000031       0x32 contiki-evb1000.a(autostart.o)
 .comment       0x0000000000000031       0x32 contiki-evb1000.a(ctimer.o)
 .comment       0x0000000000000031       0x32 contiki-evb1000.a(energest.o)
 .comment       0x0000000000000031       0x32 contiki-evb1000.a(etimer.o)
 .comment       0x0000000000000031       0x32 contiki-evb1000.a(process.o)
 .comment       0x0000000000000031       0x32 contiki-evb1000.a(rtimer.o)
 .comment       0x0000000000000031       0x32 contiki-evb1000.a(timer.o)
 .comment       0x0000000000000031       0x32 contiki-evb1000.a(serial-line.o)
 .comment       0x0000000000000031       0x32 contiki-evb1000.a(leds.o)
 .comment       0x0000000000000031       0x32 contiki-evb1000.a(list.o)
 .comment       0x0000000000000031       0x32 contiki-evb1000.a(ringbuf.o)
 .comment       0x0000000000000031       0x32 contiki-evb1000.a(uip6.o)
 .comment       0x0000000000000031       0x32 contiki-evb1000.a(uip-nd6.o)
 .comment       0x0000000000000031       0x32 contiki-evb1000.a(tcpip.o)
 .comment       0x0000000000000031       0x32 contiki-evb1000.a(rpl-dag.o)
 .comment       0x0000000000000031       0x32 contiki-evb1000.a(rpl-timers.o)
 .comment       0x0000000000000031       0x32 contiki-evb1000.a(rpl-ext-header.)
 .comment       0x0000000000000031       0x32 contiki-evb1000.a(rpl.o)
 .comment       0x0000000000000031       0x32 contiki-evb1000.a(rpl-mrhof.o)
 .comment       0x0000000000000031       0x32 contiki-evb1000.a(queuebuf.o)
 .comment       0x0000000000000031       0x32 contiki-evb1000.a(nbr-table.o)
 .comment       0x0000000000000031       0x32 contiki-evb1000.a(packetbuf.o)
 .comment       0x0000000000000031       0x32 contiki-evb1000.a(netstack.o)
 .comment       0x0000000000000031       0x32 contiki-evb1000.a(linkaddr.o)
 .comment       0x0000000000000031       0x32 contiki-evb1000.a(link-stats.o)
 .comment       0x0000000000000031       0x32 contiki-evb1000.a(nullrdc.o)
 .comment       0x0000000000000031       0x32 contiki-evb1000.a(nullsec.o)
 .comment       0x0000000000000031       0x32 contiki-evb1000.a(memb.o)
 .comment       0x0000000000000031       0x32 contiki-evb1000.a(random.o)
 .comment       0x0000000000000031       0x32 contiki-evb1000.a(uip-icmp6.o)
 .comment       0x0000000000000031       0x32 contiki-evb1000.a(uip-ds6.o)
 .comment       0x0000000000000031       0x32 contiki-evb1000.a(uip-ds6-route.o)
 .comment       0x0000000000000031       0x32 contiki-evb1000.a(uip-ds6-nbr.o)
 .comment       0x0000000000000031       0x32 contiki-evb1000.a(sicslowpan.o)
 .comment       0x0000000000000031       0x32 contiki-evb1000.a(uip-debug.o)
 .comment       0x0000000000000031       0x32 contiki-evb1000.a(rpl-icmp6.o)
 .comment       0x0000000000000031       0x32 contiki-evb1000.a(rpl-nbr-policy.)
 .comment       0x0000000000000031       0x32 contiki-evb1000.a(mac-sequence.o)
 .comment       0x0000000000000031       0x32 contiki-evb1000.a(csma.o)
 .comment       0x0000000000000031       0x32 contiki-evb1000.a(frame802154.o)
 .comment       0x0000000000000031       0x32 contiki-evb1000.a(mac.o)
 .comment       0x0000000000000031       0x32 contiki-evb1000.a(framer-802154.o)
 .comment       0x0000000000000031       0x32 contiki-evb1000.a(stimer.o)
 .comment       0x0000000000000031       0x32 /usr/lib/gcc/arm-none-eabi/6.3.1/thumb/v7-m/libgcc.a(_fixdfdi.o)
 .comment       0x0000000000000031       0x32 /usr/lib/gcc/arm-none-eabi/6.3.1/thumb/v7-m/libgcc.a(_fixunsdfdi.o)
 .comment       0x0000000000000031       0x2b /usr/lib/gcc/arm-none-eabi/6.3.1/../../../arm-none-eabi/lib/libc.a(lib_a-atexit.o)
                                         0x2c (size before relaxing)
 .comment       0x000000000000005c       0x2c /usr/lib/gcc/arm-none-eabi/6.3.1/../../../arm-none-eabi/lib/libc.a(lib_a-fini.o)
 .comment       0x000000000000005c       0x2c /usr/lib/gcc/arm-none-eabi/6.3.1/../../../arm-none-eabi/lib/libc.a(lib_a-impure.o)
 .comment       0x000000000000005c       0x2c /usr/lib/gcc/arm-none-eabi/6.3.1/../../../arm-none-eabi/lib/libc.a(lib_a-init.o)
 .comment       0x000000000000005c       0x2c /usr/lib/gcc/arm-none-eabi/6.3.1/../../../arm-none-eabi/lib/libc.a(lib_a-memcmp.o)
 .comment       0x000000000000005c       0x2c /usr/lib/gcc/arm-none-eabi/6.3.1/../../../arm-none-eabi/lib/libc.a(lib_a-memcpy-stub.o)
 .comment       0x000000000000005c       0x2c /usr/lib/gcc/arm-none-eabi/6.3.1/../../../arm-none-eabi/lib/libc.a(lib_a-memmove.o)
 .comment       0x000000000000005c       0x2c /usr/lib/gcc/arm-none-eabi/6.3.1/../../../arm-none-eabi/lib/libc.a(lib_a-memset.o)
 .comment       0x000000000000005c       0x2c /usr/lib/gcc/arm-none-eabi/6.3.1/../../../arm-none-eabi/lib/libc.a(lib_a-printf.o)
 .comment       0x000000000000005c       0x2c /usr/lib/gcc/arm-none-eabi/6.3.1/../../../arm-none-eabi/lib/libc.a(lib_a-putchar.o)
 .comment       0x000000000000005c       0x2c /usr/lib/gcc/arm-none-eabi/6.3.1/../../../arm-none-eabi/lib/libc.a(lib_a-puts.o)
 .comment       0x000000000000005c       0x2c /usr/lib/gcc/arm-none-eabi/6.3.1/../../../arm-none-eabi/lib/libc.a(lib_a-rand.o)
 .comment       0x000000000000005c       0x2c /usr/lib/gcc/arm-none-eabi/6.3.1/../../../arm-none-eabi/lib/libc.a(lib_a-strlen-stub.o)
 .comment       0x000000000000005c       0x2c /usr/lib/gcc/arm-none-eabi/6.3.1/../../../arm-none-eabi/lib/libc.a(lib_a-vfprintf.o)
 .comment       0x000000000000005c       0x2c /usr/lib/gcc/arm-none-eabi/6.3.1/../../../arm-none-eabi/lib/libc.a(lib_a-wsetup.o)
 .comment       0x000000000000005c       0x2c /usr/lib/gcc/arm-none-eabi/6.3.1/../../../arm-none-eabi/lib/libc.a(lib_a-__atexit.o)
 .comment       0x000000000000005c       0x2c /usr/lib/gcc/arm-none-eabi/6.3.1/../../../arm-none-eabi/lib/libc.a(lib_a-__call_atexit.o)
 .comment       0x000000000000005c       0x2c /usr/lib/gcc/arm-none-eabi/6.3.1/../../../arm-none-eabi/lib/libc.a(lib_a-dtoa.o)
 .comment       0x000000000000005c       0x2c /usr/lib/gcc/arm-none-eabi/6.3.1/../../../arm-none-eabi/lib/libc.a(lib_a-fflush.o)
 .comment       0x000000000000005c       0x2c /usr/lib/gcc/arm-none-eabi/6.3.1/../../../arm-none-eabi/lib/libc.a(lib_a-findfp.o)
 .comment       0x000000000000005c       0x2c /usr/lib/gcc/arm-none-eabi/6.3.1/../../../arm-none-eabi/lib/libc.a(lib_a-freer.o)
 .comment       0x000000000000005c       0x2c /usr/lib/gcc/arm-none-eabi/6.3.1/../../../arm-none-eabi/lib/libc.a(lib_a-fvwrite.o)
 .comment       0x000000000000005c       0x2c /usr/lib/gcc/arm-none-eabi/6.3.1/../../../arm-none-eabi/lib/libc.a(lib_a-fwalk.o)
 .comment       0x000000000000005c       0x2c /usr/lib/gcc/arm-none-eabi/6.3.1/../../../arm-none-eabi/lib/libc.a(lib_a-locale.o)
 .comment       0x000000000000005c       0x2c /usr/lib/gcc/arm-none-eabi/6.3.1/../../../arm-none-eabi/lib/libc.a(lib_a-makebuf.o)
 .comment       0x000000000000005c       0x2c /usr/lib/gcc/arm-none-eabi/6.3.1/../../../arm-none-eabi/lib/libc.a(lib_a-mallocr.o)
 .comment       0x000000000000005c       0x2c /usr/lib/gcc/arm-none-eabi/6.3.1/../../../arm-none-eabi/lib/libc.a(lib_a-memchr-stub.o)
 .comment       0x000000000000005c       0x2c /usr/lib/gcc/arm-none-eabi/6.3.1/../../../arm-none-eabi/lib/libc.a(lib_a-mlock.o)
 .comment       0x000000000000005c       0x2c /usr/lib/gcc/arm-none-eabi/6.3.1/../../../arm-none-eabi/lib/libc.a(lib_a-mprec.o)
 .comment       0x000000000000005c       0x2c /usr/lib/gcc/arm-none-eabi/6.3.1/../../../arm-none-eabi/lib/libc.a(lib_a-putc.o)
 .comment       0x000000000000005c       0x2c /usr/lib/gcc/arm-none-eabi/6.3.1/../../../arm-none-eabi/lib/libc.a(lib_a-reallocr.o)
 .comment       0x000000000000005c       0x2c /usr/lib/gcc/arm-none-eabi/6.3.1/../../../arm-none-eabi/lib/libc.a(lib_a-sbrkr.o)
 .comment       0x000000000000005c       0x2c /usr/lib/gcc/arm-none-eabi/6.3.1/../../../arm-none-eabi/lib/libc.a(lib_a-stdio.o)
 .comment       0x000000000000005c       0x2c /usr/lib/gcc/arm-none-eabi/6.3.1/../../../arm-none-eabi/lib/libc.a(lib_a-vfiprintf.o)
 .comment       0x000000000000005c       0x2c /usr/lib/gcc/arm-none-eabi/6.3.1/../../../arm-none-eabi/lib/libc.a(lib_a-wbuf.o)
 .comment       0x000000000000005c       0x2c /usr/lib/gcc/arm-none-eabi/6.3.1/../../../arm-none-eabi/lib/libc.a(lib_a-writer.o)
 .comment       0x000000000000005c       0x2c /usr/lib/gcc/arm-none-eabi/6.3.1/../../../arm-none-eabi/lib/libc.a(lib_a-callocr.o)
 .comment       0x000000000000005c       0x2c /usr/lib/gcc/arm-none-eabi/6.3.1/../../../arm-none-eabi/lib/libc.a(lib_a-closer.o)
 .comment       0x000000000000005c       0x2c /usr/lib/gcc/arm-none-eabi/6.3.1/../../../arm-none-eabi/lib/libc.a(lib_a-fclose.o)
 .comment       0x000000000000005c       0x2c /usr/lib/gcc/arm-none-eabi/6.3.1/../../../arm-none-eabi/lib/libc.a(lib_a-fputwc.o)
 .comment       0x000000000000005c       0x2c /usr/lib/gcc/arm-none-eabi/6.3.1/../../../arm-none-eabi/lib/libc.a(lib_a-fstatr.o)
 .comment       0x000000000000005c       0x2c /usr/lib/gcc/arm-none-eabi/6.3.1/../../../arm-none-eabi/lib/libc.a(lib_a-isattyr.o)
 .comment       0x000000000000005c       0x2c /usr/lib/gcc/arm-none-eabi/6.3.1/../../../arm-none-eabi/lib/libc.a(lib_a-lseekr.o)
 .comment       0x000000000000005c       0x2c /usr/lib/gcc/arm-none-eabi/6.3.1/../../../arm-none-eabi/lib/libc.a(lib_a-readr.o)
 .comment       0x000000000000005c       0x2c /usr/lib/gcc/arm-none-eabi/6.3.1/../../../arm-none-eabi/lib/libc.a(lib_a-reent.o)
 .comment       0x000000000000005c       0x2c /usr/lib/gcc/arm-none-eabi/6.3.1/../../../arm-none-eabi/lib/libc.a(lib_a-wcrtomb.o)
 .comment       0x000000000000005c       0x2c /usr/lib/gcc/arm-none-eabi/6.3.1/../../../arm-none-eabi/lib/libc.a(lib_a-wctomb_r.o)
 .comment       0x000000000000005c       0x32 /usr/lib/gcc/arm-none-eabi/6.3.1/thumb/v7-m/libgcc.a(_udivmoddi4.o)
 .comment       0x000000000000005c       0x32 /usr/lib/gcc/arm-none-eabi/6.3.1/thumb/v7-m/crtend.o

.debug_info     0x0000000000000000    0x82242
 .debug_info    0x0000000000000000      0xa1b hello-world.co
 .debug_info    0x0000000000000a1b     0x1937 obj_evb1000/contiki-main.o
 .debug_info    0x0000000000002352      0x77d obj_evb1000/board.o
 .debug_info    0x0000000000002acf      0x458 obj_evb1000/leds-arch.o
 .debug_info    0x0000000000002f27     0x1136 obj_evb1000/lcd.o
 .debug_info    0x000000000000405d      0xb60 obj_evb1000/stm32f10x_it.o
 .debug_info    0x0000000000004bbd      0xe82 obj_evb1000/syscalls.o
 .debug_info    0x0000000000005a3f     0x1a03 obj_evb1000/dw1000-arch.o
 .debug_info    0x0000000000007442     0x87af obj_evb1000/deca_device.o
 .debug_info    0x000000000000fbf1      0xafd obj_evb1000/deca_params_init.o
 .debug_info    0x00000000000106ee      0xbd1 obj_evb1000/deca_range_tables.o
 .debug_info    0x00000000000112bf     0x223f obj_evb1000/dw1000.o
 .debug_info    0x00000000000134fe     0x25ab obj_evb1000/dw1000-ranging.o
 .debug_info    0x0000000000015aa9      0x4d0 obj_evb1000/system_stm32f10x.o
 .debug_info    0x0000000000015f79      0x540 obj_evb1000/core_cm3.o
 .debug_info    0x00000000000164b9      0x4ed obj_evb1000/misc.o
 .debug_info    0x00000000000169a6      0x884 obj_evb1000/stm32f10x_gpio.o
 .debug_info    0x000000000001722a      0xb42 obj_evb1000/stm32f10x_rcc.o
 .debug_info    0x0000000000017d6c      0x34f obj_evb1000/stm32f10x_exti.o
 .debug_info    0x00000000000180bb      0x498 obj_evb1000/stm32f10x_rtc.o
 .debug_info    0x0000000000018553      0x7d3 obj_evb1000/stm32f10x_bkp.o
 .debug_info    0x0000000000018d26      0x9db obj_evb1000/stm32f10x_flash.o
 .debug_info    0x0000000000019701      0x202 obj_evb1000/stm32f10x_iwdg.o
 .debug_info    0x0000000000019903      0x49d obj_evb1000/stm32f10x_pwr.o
 .debug_info    0x0000000000019da0      0xa78 obj_evb1000/stm32f10x_spi.o
 .debug_info    0x000000000001a818     0x13c5 obj_evb1000/usbd_core.o
 .debug_info    0x000000000001bbdd      0xddf obj_evb1000/usbd_ioreq.o
 .debug_info    0x000000000001c9bc     0x155e obj_evb1000/usbd_req.o
 .debug_info    0x000000000001df1a     0x123b obj_evb1000/usbd_cdc_core.o
 .debug_info    0x000000000001f155      0xf67 obj_evb1000/deca_usb.o
 .debug_info    0x00000000000200bc     0x103f obj_evb1000/deca_usb_bsp_evk1000.o
 .debug_info    0x00000000000210fb      0x55d obj_evb1000/usbd_desc.o
 .debug_info    0x0000000000021658      0x1ca obj_evb1000/usbd_usr.o
 .debug_info    0x0000000000021822     0x289f obj_evb1000/usb_core.o
 .debug_info    0x00000000000240c1     0x23fa obj_evb1000/usb_dcd_int.o
 .debug_info    0x00000000000264bb     0x12bd obj_evb1000/usb_dcd.o
 .debug_info    0x0000000000027778      0x88d obj_evb1000/clock.o
 .debug_info    0x0000000000028005      0x203 obj_evb1000/watchdog.o
 .debug_info    0x0000000000028208      0x67f obj_evb1000/rtimer-arch.o
 .debug_info    0x0000000000028887      0x51a obj_evb1000/spix.o
 .debug_info    0x0000000000028da1      0x210 contiki-evb1000.a(autostart.o)
 .debug_info    0x0000000000028fb1      0x711 contiki-evb1000.a(ctimer.o)
 .debug_info    0x00000000000296c2       0xe3 contiki-evb1000.a(energest.o)
 .debug_info    0x00000000000297a5      0x6df contiki-evb1000.a(etimer.o)
 .debug_info    0x0000000000029e84      0xfd4 contiki-evb1000.a(process.o)
 .debug_info    0x000000000002ae58      0x316 contiki-evb1000.a(rtimer.o)
 .debug_info    0x000000000002b16e      0x1ba contiki-evb1000.a(timer.o)
 .debug_info    0x000000000002b328      0xc61 contiki-evb1000.a(serial-line.o)
 .debug_info    0x000000000002bf89      0x35f contiki-evb1000.a(leds.o)
 .debug_info    0x000000000002c2e8      0x41c contiki-evb1000.a(list.o)
 .debug_info    0x000000000002c704      0x1ba contiki-evb1000.a(ringbuf.o)
 .debug_info    0x000000000002c8be     0x2a3e contiki-evb1000.a(uip6.o)
 .debug_info    0x000000000002f2fc     0x1a20 contiki-evb1000.a(uip-nd6.o)
 .debug_info    0x0000000000030d1c     0x2972 contiki-evb1000.a(tcpip.o)
 .debug_info    0x000000000003368e     0x4212 contiki-evb1000.a(rpl-dag.o)
 .debug_info    0x00000000000378a0     0x25f1 contiki-evb1000.a(rpl-timers.o)
 .debug_info    0x0000000000039e91     0x2196 contiki-evb1000.a(rpl-ext-header.)
 .debug_info    0x000000000003c027     0x2197 contiki-evb1000.a(rpl.o)
 .debug_info    0x000000000003e1be     0x2036 contiki-evb1000.a(rpl-mrhof.o)
 .debug_info    0x00000000000401f4     0x1c1f contiki-evb1000.a(queuebuf.o)
 .debug_info    0x0000000000041e13     0x22bf contiki-evb1000.a(nbr-table.o)
 .debug_info    0x00000000000440d2     0x1bfb contiki-evb1000.a(packetbuf.o)
 .debug_info    0x0000000000045ccd     0x123d contiki-evb1000.a(netstack.o)
 .debug_info    0x0000000000046f0a      0x9d6 contiki-evb1000.a(linkaddr.o)
 .debug_info    0x00000000000478e0     0x18ce contiki-evb1000.a(link-stats.o)
 .debug_info    0x00000000000491ae     0x1abb contiki-evb1000.a(nullrdc.o)
 .debug_info    0x000000000004ac69     0x133a contiki-evb1000.a(nullsec.o)
 .debug_info    0x000000000004bfa3      0xb0e contiki-evb1000.a(memb.o)
 .debug_info    0x000000000004cab1      0x8f1 contiki-evb1000.a(random.o)
 .debug_info    0x000000000004d3a2     0x1c21 contiki-evb1000.a(uip-icmp6.o)
 .debug_info    0x000000000004efc3     0x2014 contiki-evb1000.a(uip-ds6.o)
 .debug_info    0x0000000000050fd7     0x2695 contiki-evb1000.a(uip-ds6-route.o)
 .debug_info    0x000000000005366c     0x1b7a contiki-evb1000.a(uip-ds6-nbr.o)
 .debug_info    0x00000000000551e6     0x2a95 contiki-evb1000.a(sicslowpan.o)
 .debug_info    0x0000000000057c7b      0xe90 contiki-evb1000.a(uip-debug.o)
 .debug_info    0x0000000000058b0b     0x2e68 contiki-evb1000.a(rpl-icmp6.o)
 .debug_info    0x000000000005b973     0x2149 contiki-evb1000.a(rpl-nbr-policy.)
 .debug_info    0x000000000005dabc     0x1787 contiki-evb1000.a(mac-sequence.o)
 .debug_info    0x000000000005f243     0x1fce contiki-evb1000.a(csma.o)
 .debug_info    0x0000000000061211     0x1606 contiki-evb1000.a(frame802154.o)
 .debug_info    0x0000000000062817      0x139 contiki-evb1000.a(mac.o)
 .debug_info    0x0000000000062950     0x14e5 contiki-evb1000.a(framer-802154.o)
 .debug_info    0x0000000000063e35      0x1ba contiki-evb1000.a(stimer.o)
 .debug_info    0x0000000000063fef       0xc0 /usr/lib/gcc/arm-none-eabi/6.3.1/thumb/v7-m/libgcc.a(_arm_addsubdf3.o)
 .debug_info    0x00000000000640af       0xc0 /usr/lib/gcc/arm-none-eabi/6.3.1/thumb/v7-m/libgcc.a(_arm_muldivdf3.o)
 .debug_info    0x000000000006416f       0xc0 /usr/lib/gcc/arm-none-eabi/6.3.1/thumb/v7-m/libgcc.a(_arm_cmpdf2.o)
 .debug_info    0x000000000006422f       0xc0 /usr/lib/gcc/arm-none-eabi/6.3.1/thumb/v7-m/libgcc.a(_arm_fixdfsi.o)
 .debug_info    0x00000000000642ef       0xc0 /usr/lib/gcc/arm-none-eabi/6.3.1/thumb/v7-m/libgcc.a(_arm_fixunsdfsi.o)
 .debug_info    0x00000000000643af       0xc0 /usr/lib/gcc/arm-none-eabi/6.3.1/thumb/v7-m/libgcc.a(_arm_truncdfsf2.o)
 .debug_info    0x000000000006446f       0xc0 /usr/lib/gcc/arm-none-eabi/6.3.1/thumb/v7-m/libgcc.a(_arm_addsubsf3.o)
 .debug_info    0x000000000006452f      0x8e0 /usr/lib/gcc/arm-none-eabi/6.3.1/thumb/v7-m/libgcc.a(_fixdfdi.o)
 .debug_info    0x0000000000064e0f      0x8e9 /usr/lib/gcc/arm-none-eabi/6.3.1/thumb/v7-m/libgcc.a(_fixunsdfdi.o)
 .debug_info    0x00000000000656f8       0xfe /usr/lib/gcc/arm-none-eabi/6.3.1/../../../arm-none-eabi/lib/libc.a(lib_a-atexit.o)
 .debug_info    0x00000000000657f6       0xfa /usr/lib/gcc/arm-none-eabi/6.3.1/../../../arm-none-eabi/lib/libc.a(lib_a-fini.o)
 .debug_info    0x00000000000658f0      0x89b /usr/lib/gcc/arm-none-eabi/6.3.1/../../../arm-none-eabi/lib/libc.a(lib_a-impure.o)
 .debug_info    0x000000000006618b      0x110 /usr/lib/gcc/arm-none-eabi/6.3.1/../../../arm-none-eabi/lib/libc.a(lib_a-init.o)
 .debug_info    0x000000000006629b      0x11a /usr/lib/gcc/arm-none-eabi/6.3.1/../../../arm-none-eabi/lib/libc.a(lib_a-memcmp.o)
 .debug_info    0x00000000000663b5      0x142 /usr/lib/gcc/arm-none-eabi/6.3.1/../../../arm-none-eabi/lib/libc.a(lib_a-memcpy-stub.o)
 .debug_info    0x00000000000664f7      0x138 /usr/lib/gcc/arm-none-eabi/6.3.1/../../../arm-none-eabi/lib/libc.a(lib_a-memmove.o)
 .debug_info    0x000000000006662f      0x11e /usr/lib/gcc/arm-none-eabi/6.3.1/../../../arm-none-eabi/lib/libc.a(lib_a-memset.o)
 .debug_info    0x000000000006674d      0x98d /usr/lib/gcc/arm-none-eabi/6.3.1/../../../arm-none-eabi/lib/libc.a(lib_a-printf.o)
 .debug_info    0x00000000000670da      0x917 /usr/lib/gcc/arm-none-eabi/6.3.1/../../../arm-none-eabi/lib/libc.a(lib_a-putchar.o)
 .debug_info    0x00000000000679f1      0xa2f /usr/lib/gcc/arm-none-eabi/6.3.1/../../../arm-none-eabi/lib/libc.a(lib_a-puts.o)
 .debug_info    0x0000000000068420      0x8ce /usr/lib/gcc/arm-none-eabi/6.3.1/../../../arm-none-eabi/lib/libc.a(lib_a-rand.o)
 .debug_info    0x0000000000068cee       0xbc /usr/lib/gcc/arm-none-eabi/6.3.1/../../../arm-none-eabi/lib/libc.a(lib_a-strlen-stub.o)
 .debug_info    0x0000000000068daa     0x1732 /usr/lib/gcc/arm-none-eabi/6.3.1/../../../arm-none-eabi/lib/libc.a(lib_a-vfprintf.o)
 .debug_info    0x000000000006a4dc      0x92b /usr/lib/gcc/arm-none-eabi/6.3.1/../../../arm-none-eabi/lib/libc.a(lib_a-wsetup.o)
 .debug_info    0x000000000006ae07      0x92e /usr/lib/gcc/arm-none-eabi/6.3.1/../../../arm-none-eabi/lib/libc.a(lib_a-__atexit.o)
 .debug_info    0x000000000006b735      0x9a5 /usr/lib/gcc/arm-none-eabi/6.3.1/../../../arm-none-eabi/lib/libc.a(lib_a-__call_atexit.o)
 .debug_info    0x000000000006c0da     0x1268 /usr/lib/gcc/arm-none-eabi/6.3.1/../../../arm-none-eabi/lib/libc.a(lib_a-dtoa.o)
 .debug_info    0x000000000006d342      0xa8c /usr/lib/gcc/arm-none-eabi/6.3.1/../../../arm-none-eabi/lib/libc.a(lib_a-fflush.o)
 .debug_info    0x000000000006ddce      0xd49 /usr/lib/gcc/arm-none-eabi/6.3.1/../../../arm-none-eabi/lib/libc.a(lib_a-findfp.o)
 .debug_info    0x000000000006eb17      0xbff /usr/lib/gcc/arm-none-eabi/6.3.1/../../../arm-none-eabi/lib/libc.a(lib_a-freer.o)
 .debug_info    0x000000000006f716      0xbcd /usr/lib/gcc/arm-none-eabi/6.3.1/../../../arm-none-eabi/lib/libc.a(lib_a-fvwrite.o)
 .debug_info    0x00000000000702e3      0x9a5 /usr/lib/gcc/arm-none-eabi/6.3.1/../../../arm-none-eabi/lib/libc.a(lib_a-fwalk.o)
 .debug_info    0x0000000000070c88      0xc1c /usr/lib/gcc/arm-none-eabi/6.3.1/../../../arm-none-eabi/lib/libc.a(lib_a-locale.o)
 .debug_info    0x00000000000718a4      0xc2a /usr/lib/gcc/arm-none-eabi/6.3.1/../../../arm-none-eabi/lib/libc.a(lib_a-makebuf.o)
 .debug_info    0x00000000000724ce      0xd4c /usr/lib/gcc/arm-none-eabi/6.3.1/../../../arm-none-eabi/lib/libc.a(lib_a-mallocr.o)
 .debug_info    0x000000000007321a      0x132 /usr/lib/gcc/arm-none-eabi/6.3.1/../../../arm-none-eabi/lib/libc.a(lib_a-memchr-stub.o)
 .debug_info    0x000000000007334c      0x8a8 /usr/lib/gcc/arm-none-eabi/6.3.1/../../../arm-none-eabi/lib/libc.a(lib_a-mlock.o)
 .debug_info    0x0000000000073bf4     0x16c5 /usr/lib/gcc/arm-none-eabi/6.3.1/../../../arm-none-eabi/lib/libc.a(lib_a-mprec.o)
 .debug_info    0x00000000000752b9      0xa50 /usr/lib/gcc/arm-none-eabi/6.3.1/../../../arm-none-eabi/lib/libc.a(lib_a-putc.o)
 .debug_info    0x0000000000075d09      0xc94 /usr/lib/gcc/arm-none-eabi/6.3.1/../../../arm-none-eabi/lib/libc.a(lib_a-reallocr.o)
 .debug_info    0x000000000007699d      0x8f5 /usr/lib/gcc/arm-none-eabi/6.3.1/../../../arm-none-eabi/lib/libc.a(lib_a-sbrkr.o)
 .debug_info    0x0000000000077292      0xb28 /usr/lib/gcc/arm-none-eabi/6.3.1/../../../arm-none-eabi/lib/libc.a(lib_a-stdio.o)
 .debug_info    0x0000000000077dba       0xb6 /usr/lib/gcc/arm-none-eabi/6.3.1/../../../arm-none-eabi/lib/libc.a(lib_a-strcmp.o)
 .debug_info    0x0000000000077e70     0x14d3 /usr/lib/gcc/arm-none-eabi/6.3.1/../../../arm-none-eabi/lib/libc.a(lib_a-vfiprintf.o)
 .debug_info    0x0000000000079343      0x9b3 /usr/lib/gcc/arm-none-eabi/6.3.1/../../../arm-none-eabi/lib/libc.a(lib_a-wbuf.o)
 .debug_info    0x0000000000079cf6      0x934 /usr/lib/gcc/arm-none-eabi/6.3.1/../../../arm-none-eabi/lib/libc.a(lib_a-writer.o)
 .debug_info    0x000000000007a62a      0x9cc /usr/lib/gcc/arm-none-eabi/6.3.1/../../../arm-none-eabi/lib/libc.a(lib_a-callocr.o)
 .debug_info    0x000000000007aff6      0x8eb /usr/lib/gcc/arm-none-eabi/6.3.1/../../../arm-none-eabi/lib/libc.a(lib_a-closer.o)
 .debug_info    0x000000000007b8e1      0xa18 /usr/lib/gcc/arm-none-eabi/6.3.1/../../../arm-none-eabi/lib/libc.a(lib_a-fclose.o)
 .debug_info    0x000000000007c2f9      0xb32 /usr/lib/gcc/arm-none-eabi/6.3.1/../../../arm-none-eabi/lib/libc.a(lib_a-fputwc.o)
 .debug_info    0x000000000007ce2b      0xacc /usr/lib/gcc/arm-none-eabi/6.3.1/../../../arm-none-eabi/lib/libc.a(lib_a-fstatr.o)
 .debug_info    0x000000000007d8f7      0x8eb /usr/lib/gcc/arm-none-eabi/6.3.1/../../../arm-none-eabi/lib/libc.a(lib_a-isattyr.o)
 .debug_info    0x000000000007e1e2      0x917 /usr/lib/gcc/arm-none-eabi/6.3.1/../../../arm-none-eabi/lib/libc.a(lib_a-lseekr.o)
 .debug_info    0x000000000007eaf9      0x92d /usr/lib/gcc/arm-none-eabi/6.3.1/../../../arm-none-eabi/lib/libc.a(lib_a-readr.o)
 .debug_info    0x000000000007f426      0x9fa /usr/lib/gcc/arm-none-eabi/6.3.1/../../../arm-none-eabi/lib/libc.a(lib_a-reent.o)
 .debug_info    0x000000000007fe20      0xa88 /usr/lib/gcc/arm-none-eabi/6.3.1/../../../arm-none-eabi/lib/libc.a(lib_a-wcrtomb.o)
 .debug_info    0x00000000000808a8      0x9be /usr/lib/gcc/arm-none-eabi/6.3.1/../../../arm-none-eabi/lib/libc.a(lib_a-wctomb_r.o)
 .debug_info    0x0000000000081266       0xbf /usr/lib/gcc/arm-none-eabi/6.3.1/thumb/v7-m/libgcc.a(_udivsi3.o)
 .debug_info    0x0000000000081325       0xbf /usr/lib/gcc/arm-none-eabi/6.3.1/thumb/v7-m/libgcc.a(_divsi3.o)
 .debug_info    0x00000000000813e4       0xbf /usr/lib/gcc/arm-none-eabi/6.3.1/thumb/v7-m/libgcc.a(_dvmd_tls.o)
 .debug_info    0x00000000000814a3       0xc0 /usr/lib/gcc/arm-none-eabi/6.3.1/thumb/v7-m/libgcc.a(_arm_unorddf2.o)
 .debug_info    0x0000000000081563       0xbb /usr/lib/gcc/arm-none-eabi/6.3.1/thumb/v7-m/libgcc.a(_aeabi_uldivmod.o)
 .debug_info    0x000000000008161e      0xc24 /usr/lib/gcc/arm-none-eabi/6.3.1/thumb/v7-m/libgcc.a(_udivmoddi4.o)

.debug_abbrev   0x0000000000000000    0x14eee
 .debug_abbrev  0x0000000000000000      0x23f hello-world.co
 .debug_abbrev  0x000000000000023f      0x32e obj_evb1000/contiki-main.o
 .debug_abbrev  0x000000000000056d      0x189 obj_evb1000/board.o
 .debug_abbrev  0x00000000000006f6      0x1d6 obj_evb1000/leds-arch.o
 .debug_abbrev  0x00000000000008cc      0x34b obj_evb1000/lcd.o
 .debug_abbrev  0x0000000000000c17      0x1c3 obj_evb1000/stm32f10x_it.o
 .debug_abbrev  0x0000000000000dda      0x255 obj_evb1000/syscalls.o
 .debug_abbrev  0x000000000000102f      0x47d obj_evb1000/dw1000-arch.o
 .debug_abbrev  0x00000000000014ac      0x4c7 obj_evb1000/deca_device.o
 .debug_abbrev  0x0000000000001973      0x18f obj_evb1000/deca_params_init.o
 .debug_abbrev  0x0000000000001b02      0x20b obj_evb1000/deca_range_tables.o
 .debug_abbrev  0x0000000000001d0d      0x4d7 obj_evb1000/dw1000.o
 .debug_abbrev  0x00000000000021e4      0x49d obj_evb1000/dw1000-ranging.o
 .debug_abbrev  0x0000000000002681      0x1b7 obj_evb1000/system_stm32f10x.o
 .debug_abbrev  0x0000000000002838       0xbd obj_evb1000/core_cm3.o
 .debug_abbrev  0x00000000000028f5      0x190 obj_evb1000/misc.o
 .debug_abbrev  0x0000000000002a85      0x213 obj_evb1000/stm32f10x_gpio.o
 .debug_abbrev  0x0000000000002c98      0x27f obj_evb1000/stm32f10x_rcc.o
 .debug_abbrev  0x0000000000002f17      0x1c1 obj_evb1000/stm32f10x_exti.o
 .debug_abbrev  0x00000000000030d8      0x1f4 obj_evb1000/stm32f10x_rtc.o
 .debug_abbrev  0x00000000000032cc      0x1a7 obj_evb1000/stm32f10x_bkp.o
 .debug_abbrev  0x0000000000003473      0x268 obj_evb1000/stm32f10x_flash.o
 .debug_abbrev  0x00000000000036db      0x13d obj_evb1000/stm32f10x_iwdg.o
 .debug_abbrev  0x0000000000003818      0x1dd obj_evb1000/stm32f10x_pwr.o
 .debug_abbrev  0x00000000000039f5      0x1f9 obj_evb1000/stm32f10x_spi.o
 .debug_abbrev  0x0000000000003bee      0x3c9 obj_evb1000/usbd_core.o
 .debug_abbrev  0x0000000000003fb7      0x1ee obj_evb1000/usbd_ioreq.o
 .debug_abbrev  0x00000000000041a5      0x3c7 obj_evb1000/usbd_req.o
 .debug_abbrev  0x000000000000456c      0x32b obj_evb1000/usbd_cdc_core.o
 .debug_abbrev  0x0000000000004897      0x2bf obj_evb1000/deca_usb.o
 .debug_abbrev  0x0000000000004b56      0x2df obj_evb1000/deca_usb_bsp_evk1000.o
 .debug_abbrev  0x0000000000004e35      0x194 obj_evb1000/usbd_desc.o
 .debug_abbrev  0x0000000000004fc9      0x104 obj_evb1000/usbd_usr.o
 .debug_abbrev  0x00000000000050cd      0x49a obj_evb1000/usb_core.o
 .debug_abbrev  0x0000000000005567      0x30d obj_evb1000/usb_dcd_int.o
 .debug_abbrev  0x0000000000005874      0x2e3 obj_evb1000/usb_dcd.o
 .debug_abbrev  0x0000000000005b57      0x2ac obj_evb1000/clock.o
 .debug_abbrev  0x0000000000005e03      0x124 obj_evb1000/watchdog.o
 .debug_abbrev  0x0000000000005f27      0x205 obj_evb1000/rtimer-arch.o
 .debug_abbrev  0x000000000000612c      0x16f obj_evb1000/spix.o
 .debug_abbrev  0x000000000000629b      0x146 contiki-evb1000.a(autostart.o)
 .debug_abbrev  0x00000000000063e1      0x231 contiki-evb1000.a(ctimer.o)
 .debug_abbrev  0x0000000000006612       0xbd contiki-evb1000.a(energest.o)
 .debug_abbrev  0x00000000000066cf      0x2ee contiki-evb1000.a(etimer.o)
 .debug_abbrev  0x00000000000069bd      0x461 contiki-evb1000.a(process.o)
 .debug_abbrev  0x0000000000006e1e      0x1eb contiki-evb1000.a(rtimer.o)
 .debug_abbrev  0x0000000000007009       0xec contiki-evb1000.a(timer.o)
 .debug_abbrev  0x00000000000070f5      0x2cf contiki-evb1000.a(serial-line.o)
 .debug_abbrev  0x00000000000073c4      0x16f contiki-evb1000.a(leds.o)
 .debug_abbrev  0x0000000000007533      0x1eb contiki-evb1000.a(list.o)
 .debug_abbrev  0x000000000000771e       0xdd contiki-evb1000.a(ringbuf.o)
 .debug_abbrev  0x00000000000077fb      0x4b6 contiki-evb1000.a(uip6.o)
 .debug_abbrev  0x0000000000007cb1      0x368 contiki-evb1000.a(uip-nd6.o)
 .debug_abbrev  0x0000000000008019      0x566 contiki-evb1000.a(tcpip.o)
 .debug_abbrev  0x000000000000857f      0x5f1 contiki-evb1000.a(rpl-dag.o)
 .debug_abbrev  0x0000000000008b70      0x476 contiki-evb1000.a(rpl-timers.o)
 .debug_abbrev  0x0000000000008fe6      0x39b contiki-evb1000.a(rpl-ext-header.)
 .debug_abbrev  0x0000000000009381      0x3ac contiki-evb1000.a(rpl.o)
 .debug_abbrev  0x000000000000972d      0x3a6 contiki-evb1000.a(rpl-mrhof.o)
 .debug_abbrev  0x0000000000009ad3      0x36f contiki-evb1000.a(queuebuf.o)
 .debug_abbrev  0x0000000000009e42      0x465 contiki-evb1000.a(nbr-table.o)
 .debug_abbrev  0x000000000000a2a7      0x3cc contiki-evb1000.a(packetbuf.o)
 .debug_abbrev  0x000000000000a673      0x244 contiki-evb1000.a(netstack.o)
 .debug_abbrev  0x000000000000a8b7      0x27c contiki-evb1000.a(linkaddr.o)
 .debug_abbrev  0x000000000000ab33      0x38f contiki-evb1000.a(link-stats.o)
 .debug_abbrev  0x000000000000aec2      0x419 contiki-evb1000.a(nullrdc.o)
 .debug_abbrev  0x000000000000b2db      0x2b2 contiki-evb1000.a(nullsec.o)
 .debug_abbrev  0x000000000000b58d      0x24f contiki-evb1000.a(memb.o)
 .debug_abbrev  0x000000000000b7dc      0x1f5 contiki-evb1000.a(random.o)
 .debug_abbrev  0x000000000000b9d1      0x434 contiki-evb1000.a(uip-icmp6.o)
 .debug_abbrev  0x000000000000be05      0x477 contiki-evb1000.a(uip-ds6.o)
 .debug_abbrev  0x000000000000c27c      0x51a contiki-evb1000.a(uip-ds6-route.o)
 .debug_abbrev  0x000000000000c796      0x3a3 contiki-evb1000.a(uip-ds6-nbr.o)
 .debug_abbrev  0x000000000000cb39      0x4bd contiki-evb1000.a(sicslowpan.o)
 .debug_abbrev  0x000000000000cff6      0x26b contiki-evb1000.a(uip-debug.o)
 .debug_abbrev  0x000000000000d261      0x504 contiki-evb1000.a(rpl-icmp6.o)
 .debug_abbrev  0x000000000000d765      0x3be contiki-evb1000.a(rpl-nbr-policy.)
 .debug_abbrev  0x000000000000db23      0x2d5 contiki-evb1000.a(mac-sequence.o)
 .debug_abbrev  0x000000000000ddf8      0x4aa contiki-evb1000.a(csma.o)
 .debug_abbrev  0x000000000000e2a2      0x44e contiki-evb1000.a(frame802154.o)
 .debug_abbrev  0x000000000000e6f0       0xc0 contiki-evb1000.a(mac.o)
 .debug_abbrev  0x000000000000e7b0      0x329 contiki-evb1000.a(framer-802154.o)
 .debug_abbrev  0x000000000000ead9       0xd0 contiki-evb1000.a(stimer.o)
 .debug_abbrev  0x000000000000eba9       0x14 /usr/lib/gcc/arm-none-eabi/6.3.1/thumb/v7-m/libgcc.a(_arm_addsubdf3.o)
 .debug_abbrev  0x000000000000ebbd       0x14 /usr/lib/gcc/arm-none-eabi/6.3.1/thumb/v7-m/libgcc.a(_arm_muldivdf3.o)
 .debug_abbrev  0x000000000000ebd1       0x14 /usr/lib/gcc/arm-none-eabi/6.3.1/thumb/v7-m/libgcc.a(_arm_cmpdf2.o)
 .debug_abbrev  0x000000000000ebe5       0x14 /usr/lib/gcc/arm-none-eabi/6.3.1/thumb/v7-m/libgcc.a(_arm_fixdfsi.o)
 .debug_abbrev  0x000000000000ebf9       0x14 /usr/lib/gcc/arm-none-eabi/6.3.1/thumb/v7-m/libgcc.a(_arm_fixunsdfsi.o)
 .debug_abbrev  0x000000000000ec0d       0x14 /usr/lib/gcc/arm-none-eabi/6.3.1/thumb/v7-m/libgcc.a(_arm_truncdfsf2.o)
 .debug_abbrev  0x000000000000ec21       0x14 /usr/lib/gcc/arm-none-eabi/6.3.1/thumb/v7-m/libgcc.a(_arm_addsubsf3.o)
 .debug_abbrev  0x000000000000ec35      0x163 /usr/lib/gcc/arm-none-eabi/6.3.1/thumb/v7-m/libgcc.a(_fixdfdi.o)
 .debug_abbrev  0x000000000000ed98      0x144 /usr/lib/gcc/arm-none-eabi/6.3.1/thumb/v7-m/libgcc.a(_fixunsdfdi.o)
 .debug_abbrev  0x000000000000eedc       0xa7 /usr/lib/gcc/arm-none-eabi/6.3.1/../../../arm-none-eabi/lib/libc.a(lib_a-atexit.o)
 .debug_abbrev  0x000000000000ef83       0xba /usr/lib/gcc/arm-none-eabi/6.3.1/../../../arm-none-eabi/lib/libc.a(lib_a-fini.o)
 .debug_abbrev  0x000000000000f03d      0x180 /usr/lib/gcc/arm-none-eabi/6.3.1/../../../arm-none-eabi/lib/libc.a(lib_a-impure.o)
 .debug_abbrev  0x000000000000f1bd       0xba /usr/lib/gcc/arm-none-eabi/6.3.1/../../../arm-none-eabi/lib/libc.a(lib_a-init.o)
 .debug_abbrev  0x000000000000f277       0x7f /usr/lib/gcc/arm-none-eabi/6.3.1/../../../arm-none-eabi/lib/libc.a(lib_a-memcmp.o)
 .debug_abbrev  0x000000000000f2f6       0xb2 /usr/lib/gcc/arm-none-eabi/6.3.1/../../../arm-none-eabi/lib/libc.a(lib_a-memcpy-stub.o)
 .debug_abbrev  0x000000000000f3a8       0xab /usr/lib/gcc/arm-none-eabi/6.3.1/../../../arm-none-eabi/lib/libc.a(lib_a-memmove.o)
 .debug_abbrev  0x000000000000f453       0x9f /usr/lib/gcc/arm-none-eabi/6.3.1/../../../arm-none-eabi/lib/libc.a(lib_a-memset.o)
 .debug_abbrev  0x000000000000f4f2      0x22a /usr/lib/gcc/arm-none-eabi/6.3.1/../../../arm-none-eabi/lib/libc.a(lib_a-printf.o)
 .debug_abbrev  0x000000000000f71c      0x1f3 /usr/lib/gcc/arm-none-eabi/6.3.1/../../../arm-none-eabi/lib/libc.a(lib_a-putchar.o)
 .debug_abbrev  0x000000000000f90f      0x247 /usr/lib/gcc/arm-none-eabi/6.3.1/../../../arm-none-eabi/lib/libc.a(lib_a-puts.o)
 .debug_abbrev  0x000000000000fb56      0x1d8 /usr/lib/gcc/arm-none-eabi/6.3.1/../../../arm-none-eabi/lib/libc.a(lib_a-rand.o)
 .debug_abbrev  0x000000000000fd2e       0x70 /usr/lib/gcc/arm-none-eabi/6.3.1/../../../arm-none-eabi/lib/libc.a(lib_a-strlen-stub.o)
 .debug_abbrev  0x000000000000fd9e      0x3a9 /usr/lib/gcc/arm-none-eabi/6.3.1/../../../arm-none-eabi/lib/libc.a(lib_a-vfprintf.o)
 .debug_abbrev  0x0000000000010147      0x209 /usr/lib/gcc/arm-none-eabi/6.3.1/../../../arm-none-eabi/lib/libc.a(lib_a-wsetup.o)
 .debug_abbrev  0x0000000000010350      0x20f /usr/lib/gcc/arm-none-eabi/6.3.1/../../../arm-none-eabi/lib/libc.a(lib_a-__atexit.o)
 .debug_abbrev  0x000000000001055f      0x26d /usr/lib/gcc/arm-none-eabi/6.3.1/../../../arm-none-eabi/lib/libc.a(lib_a-__call_atexit.o)
 .debug_abbrev  0x00000000000107cc      0x2bc /usr/lib/gcc/arm-none-eabi/6.3.1/../../../arm-none-eabi/lib/libc.a(lib_a-dtoa.o)
 .debug_abbrev  0x0000000000010a88      0x29c /usr/lib/gcc/arm-none-eabi/6.3.1/../../../arm-none-eabi/lib/libc.a(lib_a-fflush.o)
 .debug_abbrev  0x0000000000010d24      0x355 /usr/lib/gcc/arm-none-eabi/6.3.1/../../../arm-none-eabi/lib/libc.a(lib_a-findfp.o)
 .debug_abbrev  0x0000000000011079      0x254 /usr/lib/gcc/arm-none-eabi/6.3.1/../../../arm-none-eabi/lib/libc.a(lib_a-freer.o)
 .debug_abbrev  0x00000000000112cd      0x219 /usr/lib/gcc/arm-none-eabi/6.3.1/../../../arm-none-eabi/lib/libc.a(lib_a-fvwrite.o)
 .debug_abbrev  0x00000000000114e6      0x1c2 /usr/lib/gcc/arm-none-eabi/6.3.1/../../../arm-none-eabi/lib/libc.a(lib_a-fwalk.o)
 .debug_abbrev  0x00000000000116a8      0x2a8 /usr/lib/gcc/arm-none-eabi/6.3.1/../../../arm-none-eabi/lib/libc.a(lib_a-locale.o)
 .debug_abbrev  0x0000000000011950      0x29a /usr/lib/gcc/arm-none-eabi/6.3.1/../../../arm-none-eabi/lib/libc.a(lib_a-makebuf.o)
 .debug_abbrev  0x0000000000011bea      0x29d /usr/lib/gcc/arm-none-eabi/6.3.1/../../../arm-none-eabi/lib/libc.a(lib_a-mallocr.o)
 .debug_abbrev  0x0000000000011e87       0xab /usr/lib/gcc/arm-none-eabi/6.3.1/../../../arm-none-eabi/lib/libc.a(lib_a-memchr-stub.o)
 .debug_abbrev  0x0000000000011f32      0x1ac /usr/lib/gcc/arm-none-eabi/6.3.1/../../../arm-none-eabi/lib/libc.a(lib_a-mlock.o)
 .debug_abbrev  0x00000000000120de      0x3b9 /usr/lib/gcc/arm-none-eabi/6.3.1/../../../arm-none-eabi/lib/libc.a(lib_a-mprec.o)
 .debug_abbrev  0x0000000000012497      0x25f /usr/lib/gcc/arm-none-eabi/6.3.1/../../../arm-none-eabi/lib/libc.a(lib_a-putc.o)
 .debug_abbrev  0x00000000000126f6      0x22c /usr/lib/gcc/arm-none-eabi/6.3.1/../../../arm-none-eabi/lib/libc.a(lib_a-reallocr.o)
 .debug_abbrev  0x0000000000012922      0x1fb /usr/lib/gcc/arm-none-eabi/6.3.1/../../../arm-none-eabi/lib/libc.a(lib_a-sbrkr.o)
 .debug_abbrev  0x0000000000012b1d      0x20f /usr/lib/gcc/arm-none-eabi/6.3.1/../../../arm-none-eabi/lib/libc.a(lib_a-stdio.o)
 .debug_abbrev  0x0000000000012d2c       0x14 /usr/lib/gcc/arm-none-eabi/6.3.1/../../../arm-none-eabi/lib/libc.a(lib_a-strcmp.o)
 .debug_abbrev  0x0000000000012d40      0x3b2 /usr/lib/gcc/arm-none-eabi/6.3.1/../../../arm-none-eabi/lib/libc.a(lib_a-vfiprintf.o)
 .debug_abbrev  0x00000000000130f2      0x242 /usr/lib/gcc/arm-none-eabi/6.3.1/../../../arm-none-eabi/lib/libc.a(lib_a-wbuf.o)
 .debug_abbrev  0x0000000000013334      0x1fb /usr/lib/gcc/arm-none-eabi/6.3.1/../../../arm-none-eabi/lib/libc.a(lib_a-writer.o)
 .debug_abbrev  0x000000000001352f      0x207 /usr/lib/gcc/arm-none-eabi/6.3.1/../../../arm-none-eabi/lib/libc.a(lib_a-callocr.o)
 .debug_abbrev  0x0000000000013736      0x1f6 /usr/lib/gcc/arm-none-eabi/6.3.1/../../../arm-none-eabi/lib/libc.a(lib_a-closer.o)
 .debug_abbrev  0x000000000001392c      0x293 /usr/lib/gcc/arm-none-eabi/6.3.1/../../../arm-none-eabi/lib/libc.a(lib_a-fclose.o)
 .debug_abbrev  0x0000000000013bbf      0x2d4 /usr/lib/gcc/arm-none-eabi/6.3.1/../../../arm-none-eabi/lib/libc.a(lib_a-fputwc.o)
 .debug_abbrev  0x0000000000013e93      0x205 /usr/lib/gcc/arm-none-eabi/6.3.1/../../../arm-none-eabi/lib/libc.a(lib_a-fstatr.o)
 .debug_abbrev  0x0000000000014098      0x1f6 /usr/lib/gcc/arm-none-eabi/6.3.1/../../../arm-none-eabi/lib/libc.a(lib_a-isattyr.o)
 .debug_abbrev  0x000000000001428e      0x205 /usr/lib/gcc/arm-none-eabi/6.3.1/../../../arm-none-eabi/lib/libc.a(lib_a-lseekr.o)
 .debug_abbrev  0x0000000000014493      0x1f6 /usr/lib/gcc/arm-none-eabi/6.3.1/../../../arm-none-eabi/lib/libc.a(lib_a-readr.o)
 .debug_abbrev  0x0000000000014689      0x25c /usr/lib/gcc/arm-none-eabi/6.3.1/../../../arm-none-eabi/lib/libc.a(lib_a-reent.o)
 .debug_abbrev  0x00000000000148e5      0x218 /usr/lib/gcc/arm-none-eabi/6.3.1/../../../arm-none-eabi/lib/libc.a(lib_a-wcrtomb.o)
 .debug_abbrev  0x0000000000014afd      0x201 /usr/lib/gcc/arm-none-eabi/6.3.1/../../../arm-none-eabi/lib/libc.a(lib_a-wctomb_r.o)
 .debug_abbrev  0x0000000000014cfe       0x14 /usr/lib/gcc/arm-none-eabi/6.3.1/thumb/v7-m/libgcc.a(_udivsi3.o)
 .debug_abbrev  0x0000000000014d12       0x14 /usr/lib/gcc/arm-none-eabi/6.3.1/thumb/v7-m/libgcc.a(_divsi3.o)
 .debug_abbrev  0x0000000000014d26       0x14 /usr/lib/gcc/arm-none-eabi/6.3.1/thumb/v7-m/libgcc.a(_dvmd_tls.o)
 .debug_abbrev  0x0000000000014d3a       0x14 /usr/lib/gcc/arm-none-eabi/6.3.1/thumb/v7-m/libgcc.a(_arm_unorddf2.o)
 .debug_abbrev  0x0000000000014d4e       0x14 /usr/lib/gcc/arm-none-eabi/6.3.1/thumb/v7-m/libgcc.a(_aeabi_uldivmod.o)
 .debug_abbrev  0x0000000000014d62      0x18c /usr/lib/gcc/arm-none-eabi/6.3.1/thumb/v7-m/libgcc.a(_udivmoddi4.o)

.debug_loc      0x0000000000000000    0x2ab22
 .debug_loc     0x0000000000000000       0x8e hello-world.co
 .debug_loc     0x000000000000008e       0x73 obj_evb1000/contiki-main.o
 .debug_loc     0x0000000000000101       0x1e obj_evb1000/board.o
 .debug_loc     0x000000000000011f       0x21 obj_evb1000/leds-arch.o
 .debug_loc     0x0000000000000140      0x137 obj_evb1000/lcd.o
 .debug_loc     0x0000000000000277      0x163 obj_evb1000/syscalls.o
 .debug_loc     0x00000000000003da      0x373 obj_evb1000/dw1000-arch.o
 .debug_loc     0x000000000000074d     0x60cb obj_evb1000/deca_device.o
 .debug_loc     0x0000000000006818      0x295 obj_evb1000/deca_range_tables.o
 .debug_loc     0x0000000000006aad      0x774 obj_evb1000/dw1000.o
 .debug_loc     0x0000000000007221      0xcd1 obj_evb1000/dw1000-ranging.o
 .debug_loc     0x0000000000007ef2      0x1d4 obj_evb1000/system_stm32f10x.o
 .debug_loc     0x00000000000080c6      0x33a obj_evb1000/core_cm3.o
 .debug_loc     0x0000000000008400      0x147 obj_evb1000/misc.o
 .debug_loc     0x0000000000008547      0x597 obj_evb1000/stm32f10x_gpio.o
 .debug_loc     0x0000000000008ade      0x98a obj_evb1000/stm32f10x_rcc.o
 .debug_loc     0x0000000000009468      0x212 obj_evb1000/stm32f10x_exti.o
 .debug_loc     0x000000000000967a      0x1f8 obj_evb1000/stm32f10x_rtc.o
 .debug_loc     0x0000000000009872       0xee obj_evb1000/stm32f10x_bkp.o
 .debug_loc     0x0000000000009960      0x81b obj_evb1000/stm32f10x_flash.o
 .debug_loc     0x000000000000a17b       0x62 obj_evb1000/stm32f10x_iwdg.o
 .debug_loc     0x000000000000a1dd      0x111 obj_evb1000/stm32f10x_pwr.o
 .debug_loc     0x000000000000a2ee      0x5f2 obj_evb1000/stm32f10x_spi.o
 .debug_loc     0x000000000000a8e0      0x6a5 obj_evb1000/usbd_core.o
 .debug_loc     0x000000000000af85      0x236 obj_evb1000/usbd_ioreq.o
 .debug_loc     0x000000000000b1bb      0xb11 obj_evb1000/usbd_req.o
 .debug_loc     0x000000000000bccc      0x470 obj_evb1000/usbd_cdc_core.o
 .debug_loc     0x000000000000c13c      0x1c0 obj_evb1000/deca_usb.o
 .debug_loc     0x000000000000c2fc       0xce obj_evb1000/deca_usb_bsp_evk1000.o
 .debug_loc     0x000000000000c3ca      0x2c1 obj_evb1000/usbd_desc.o
 .debug_loc     0x000000000000c68b     0x14b5 obj_evb1000/usb_core.o
 .debug_loc     0x000000000000db40      0x9bd obj_evb1000/usb_dcd_int.o
 .debug_loc     0x000000000000e4fd      0x786 obj_evb1000/usb_dcd.o
 .debug_loc     0x000000000000ec83       0xc9 obj_evb1000/clock.o
 .debug_loc     0x000000000000ed4c       0x21 obj_evb1000/rtimer-arch.o
 .debug_loc     0x000000000000ed6d       0xbe obj_evb1000/spix.o
 .debug_loc     0x000000000000ee2b       0x80 contiki-evb1000.a(autostart.o)
 .debug_loc     0x000000000000eeab      0x4b0 contiki-evb1000.a(ctimer.o)
 .debug_loc     0x000000000000f35b       0x21 contiki-evb1000.a(energest.o)
 .debug_loc     0x000000000000f37c      0x4e9 contiki-evb1000.a(etimer.o)
 .debug_loc     0x000000000000f865      0x5cd contiki-evb1000.a(process.o)
 .debug_loc     0x000000000000fe32      0x113 contiki-evb1000.a(rtimer.o)
 .debug_loc     0x000000000000ff45       0xb7 contiki-evb1000.a(timer.o)
 .debug_loc     0x000000000000fffc      0x202 contiki-evb1000.a(serial-line.o)
 .debug_loc     0x00000000000101fe      0x1fa contiki-evb1000.a(leds.o)
 .debug_loc     0x00000000000103f8      0x3ed contiki-evb1000.a(list.o)
 .debug_loc     0x00000000000107e5      0x105 contiki-evb1000.a(ringbuf.o)
 .debug_loc     0x00000000000108ea      0x8f7 contiki-evb1000.a(uip6.o)
 .debug_loc     0x00000000000111e1       0x7f contiki-evb1000.a(uip-nd6.o)
 .debug_loc     0x0000000000011260      0x892 contiki-evb1000.a(tcpip.o)
 .debug_loc     0x0000000000011af2     0x1d02 contiki-evb1000.a(rpl-dag.o)
 .debug_loc     0x00000000000137f4      0x8c9 contiki-evb1000.a(rpl-timers.o)
 .debug_loc     0x00000000000140bd      0x1c8 contiki-evb1000.a(rpl-ext-header.)
 .debug_loc     0x0000000000014285      0x32f contiki-evb1000.a(rpl.o)
 .debug_loc     0x00000000000145b4      0x3ee contiki-evb1000.a(rpl-mrhof.o)
 .debug_loc     0x00000000000149a2      0x201 contiki-evb1000.a(queuebuf.o)
 .debug_loc     0x0000000000014ba3      0xf12 contiki-evb1000.a(nbr-table.o)
 .debug_loc     0x0000000000015ab5      0x24b contiki-evb1000.a(packetbuf.o)
 .debug_loc     0x0000000000015d00       0x6d contiki-evb1000.a(linkaddr.o)
 .debug_loc     0x0000000000015d6d      0x402 contiki-evb1000.a(link-stats.o)
 .debug_loc     0x000000000001616f      0x315 contiki-evb1000.a(nullrdc.o)
 .debug_loc     0x0000000000016484       0x6e contiki-evb1000.a(nullsec.o)
 .debug_loc     0x00000000000164f2      0x283 contiki-evb1000.a(memb.o)
 .debug_loc     0x0000000000016775       0x21 contiki-evb1000.a(random.o)
 .debug_loc     0x0000000000016796      0x31b contiki-evb1000.a(uip-icmp6.o)
 .debug_loc     0x0000000000016ab1      0x67a contiki-evb1000.a(uip-ds6.o)
 .debug_loc     0x000000000001712b      0x851 contiki-evb1000.a(uip-ds6-route.o)
 .debug_loc     0x000000000001797c      0x3a8 contiki-evb1000.a(uip-ds6-nbr.o)
 .debug_loc     0x0000000000017d24     0x1073 contiki-evb1000.a(sicslowpan.o)
 .debug_loc     0x0000000000018d97       0xcd contiki-evb1000.a(uip-debug.o)
 .debug_loc     0x0000000000018e64     0x100c contiki-evb1000.a(rpl-icmp6.o)
 .debug_loc     0x0000000000019e70      0x2fd contiki-evb1000.a(rpl-nbr-policy.)
 .debug_loc     0x000000000001a16d       0x9f contiki-evb1000.a(mac-sequence.o)
 .debug_loc     0x000000000001a20c      0xa98 contiki-evb1000.a(csma.o)
 .debug_loc     0x000000000001aca4      0x80e contiki-evb1000.a(frame802154.o)
 .debug_loc     0x000000000001b4b2       0xf2 contiki-evb1000.a(mac.o)
 .debug_loc     0x000000000001b5a4       0x70 contiki-evb1000.a(framer-802154.o)
 .debug_loc     0x000000000001b614       0xc8 contiki-evb1000.a(stimer.o)
 .debug_loc     0x000000000001b6dc       0x28 /usr/lib/gcc/arm-none-eabi/6.3.1/thumb/v7-m/libgcc.a(_fixdfdi.o)
 .debug_loc     0x000000000001b704       0x9f /usr/lib/gcc/arm-none-eabi/6.3.1/thumb/v7-m/libgcc.a(_fixunsdfdi.o)
 .debug_loc     0x000000000001b7a3       0x2c /usr/lib/gcc/arm-none-eabi/6.3.1/../../../arm-none-eabi/lib/libc.a(lib_a-atexit.o)
 .debug_loc     0x000000000001b7cf       0x5c /usr/lib/gcc/arm-none-eabi/6.3.1/../../../arm-none-eabi/lib/libc.a(lib_a-fini.o)
 .debug_loc     0x000000000001b82b       0xa2 /usr/lib/gcc/arm-none-eabi/6.3.1/../../../arm-none-eabi/lib/libc.a(lib_a-init.o)
 .debug_loc     0x000000000001b8cd      0x11c /usr/lib/gcc/arm-none-eabi/6.3.1/../../../arm-none-eabi/lib/libc.a(lib_a-memcmp.o)
 .debug_loc     0x000000000001b9e9      0x1f6 /usr/lib/gcc/arm-none-eabi/6.3.1/../../../arm-none-eabi/lib/libc.a(lib_a-memcpy-stub.o)
 .debug_loc     0x000000000001bbdf      0x288 /usr/lib/gcc/arm-none-eabi/6.3.1/../../../arm-none-eabi/lib/libc.a(lib_a-memmove.o)
 .debug_loc     0x000000000001be67      0x198 /usr/lib/gcc/arm-none-eabi/6.3.1/../../../arm-none-eabi/lib/libc.a(lib_a-memset.o)
 .debug_loc     0x000000000001bfff       0x34 /usr/lib/gcc/arm-none-eabi/6.3.1/../../../arm-none-eabi/lib/libc.a(lib_a-printf.o)
 .debug_loc     0x000000000001c033       0x81 /usr/lib/gcc/arm-none-eabi/6.3.1/../../../arm-none-eabi/lib/libc.a(lib_a-putchar.o)
 .debug_loc     0x000000000001c0b4      0x129 /usr/lib/gcc/arm-none-eabi/6.3.1/../../../arm-none-eabi/lib/libc.a(lib_a-puts.o)
 .debug_loc     0x000000000001c1dd       0x1f /usr/lib/gcc/arm-none-eabi/6.3.1/../../../arm-none-eabi/lib/libc.a(lib_a-rand.o)
 .debug_loc     0x000000000001c1fc       0x21 /usr/lib/gcc/arm-none-eabi/6.3.1/../../../arm-none-eabi/lib/libc.a(lib_a-strlen-stub.o)
 .debug_loc     0x000000000001c21d     0x248b /usr/lib/gcc/arm-none-eabi/6.3.1/../../../arm-none-eabi/lib/libc.a(lib_a-vfprintf.o)
 .debug_loc     0x000000000001e6a8       0xd4 /usr/lib/gcc/arm-none-eabi/6.3.1/../../../arm-none-eabi/lib/libc.a(lib_a-wsetup.o)
 .debug_loc     0x000000000001e77c      0x11b /usr/lib/gcc/arm-none-eabi/6.3.1/../../../arm-none-eabi/lib/libc.a(lib_a-__atexit.o)
 .debug_loc     0x000000000001e897      0x1cb /usr/lib/gcc/arm-none-eabi/6.3.1/../../../arm-none-eabi/lib/libc.a(lib_a-__call_atexit.o)
 .debug_loc     0x000000000001ea62     0x2548 /usr/lib/gcc/arm-none-eabi/6.3.1/../../../arm-none-eabi/lib/libc.a(lib_a-dtoa.o)
 .debug_loc     0x0000000000020faa      0x360 /usr/lib/gcc/arm-none-eabi/6.3.1/../../../arm-none-eabi/lib/libc.a(lib_a-fflush.o)
 .debug_loc     0x000000000002130a      0x2f9 /usr/lib/gcc/arm-none-eabi/6.3.1/../../../arm-none-eabi/lib/libc.a(lib_a-findfp.o)
 .debug_loc     0x0000000000021603      0x504 /usr/lib/gcc/arm-none-eabi/6.3.1/../../../arm-none-eabi/lib/libc.a(lib_a-freer.o)
 .debug_loc     0x0000000000021b07      0x609 /usr/lib/gcc/arm-none-eabi/6.3.1/../../../arm-none-eabi/lib/libc.a(lib_a-fvwrite.o)
 .debug_loc     0x0000000000022110      0x27f /usr/lib/gcc/arm-none-eabi/6.3.1/../../../arm-none-eabi/lib/libc.a(lib_a-fwalk.o)
 .debug_loc     0x000000000002238f      0x160 /usr/lib/gcc/arm-none-eabi/6.3.1/../../../arm-none-eabi/lib/libc.a(lib_a-locale.o)
 .debug_loc     0x00000000000224ef      0x235 /usr/lib/gcc/arm-none-eabi/6.3.1/../../../arm-none-eabi/lib/libc.a(lib_a-makebuf.o)
 .debug_loc     0x0000000000022724      0xb7e /usr/lib/gcc/arm-none-eabi/6.3.1/../../../arm-none-eabi/lib/libc.a(lib_a-mallocr.o)
 .debug_loc     0x00000000000232a2      0x1b2 /usr/lib/gcc/arm-none-eabi/6.3.1/../../../arm-none-eabi/lib/libc.a(lib_a-memchr-stub.o)
 .debug_loc     0x0000000000023454     0x2932 /usr/lib/gcc/arm-none-eabi/6.3.1/../../../arm-none-eabi/lib/libc.a(lib_a-mprec.o)
 .debug_loc     0x0000000000025d86      0x270 /usr/lib/gcc/arm-none-eabi/6.3.1/../../../arm-none-eabi/lib/libc.a(lib_a-putc.o)
 .debug_loc     0x0000000000025ff6      0xe58 /usr/lib/gcc/arm-none-eabi/6.3.1/../../../arm-none-eabi/lib/libc.a(lib_a-reallocr.o)
 .debug_loc     0x0000000000026e4e       0x66 /usr/lib/gcc/arm-none-eabi/6.3.1/../../../arm-none-eabi/lib/libc.a(lib_a-sbrkr.o)
 .debug_loc     0x0000000000026eb4      0x2d6 /usr/lib/gcc/arm-none-eabi/6.3.1/../../../arm-none-eabi/lib/libc.a(lib_a-stdio.o)
 .debug_loc     0x000000000002718a     0x1b7a /usr/lib/gcc/arm-none-eabi/6.3.1/../../../arm-none-eabi/lib/libc.a(lib_a-vfiprintf.o)
 .debug_loc     0x0000000000028d04      0x1b2 /usr/lib/gcc/arm-none-eabi/6.3.1/../../../arm-none-eabi/lib/libc.a(lib_a-wbuf.o)
 .debug_loc     0x0000000000028eb6       0xa5 /usr/lib/gcc/arm-none-eabi/6.3.1/../../../arm-none-eabi/lib/libc.a(lib_a-writer.o)
 .debug_loc     0x0000000000028f5b      0x201 /usr/lib/gcc/arm-none-eabi/6.3.1/../../../arm-none-eabi/lib/libc.a(lib_a-callocr.o)
 .debug_loc     0x000000000002915c       0x4d /usr/lib/gcc/arm-none-eabi/6.3.1/../../../arm-none-eabi/lib/libc.a(lib_a-closer.o)
 .debug_loc     0x00000000000291a9      0x1c6 /usr/lib/gcc/arm-none-eabi/6.3.1/../../../arm-none-eabi/lib/libc.a(lib_a-fclose.o)
 .debug_loc     0x000000000002936f      0x364 /usr/lib/gcc/arm-none-eabi/6.3.1/../../../arm-none-eabi/lib/libc.a(lib_a-fputwc.o)
 .debug_loc     0x00000000000296d3       0x79 /usr/lib/gcc/arm-none-eabi/6.3.1/../../../arm-none-eabi/lib/libc.a(lib_a-fstatr.o)
 .debug_loc     0x000000000002974c       0x4d /usr/lib/gcc/arm-none-eabi/6.3.1/../../../arm-none-eabi/lib/libc.a(lib_a-isattyr.o)
 .debug_loc     0x0000000000029799       0xa5 /usr/lib/gcc/arm-none-eabi/6.3.1/../../../arm-none-eabi/lib/libc.a(lib_a-lseekr.o)
 .debug_loc     0x000000000002983e       0xa5 /usr/lib/gcc/arm-none-eabi/6.3.1/../../../arm-none-eabi/lib/libc.a(lib_a-readr.o)
 .debug_loc     0x00000000000298e3      0x115 /usr/lib/gcc/arm-none-eabi/6.3.1/../../../arm-none-eabi/lib/libc.a(lib_a-reent.o)
 .debug_loc     0x00000000000299f8      0x25e /usr/lib/gcc/arm-none-eabi/6.3.1/../../../arm-none-eabi/lib/libc.a(lib_a-wcrtomb.o)
 .debug_loc     0x0000000000029c56      0x113 /usr/lib/gcc/arm-none-eabi/6.3.1/../../../arm-none-eabi/lib/libc.a(lib_a-wctomb_r.o)
 .debug_loc     0x0000000000029d69      0xdb9 /usr/lib/gcc/arm-none-eabi/6.3.1/thumb/v7-m/libgcc.a(_udivmoddi4.o)

.debug_aranges  0x0000000000000000     0x2af0
 .debug_aranges
                0x0000000000000000       0x20 hello-world.co
 .debug_aranges
                0x0000000000000020       0x20 obj_evb1000/contiki-main.o
 .debug_aranges
                0x0000000000000040       0x38 obj_evb1000/board.o
 .debug_aranges
                0x0000000000000078       0x30 obj_evb1000/leds-arch.o
 .debug_aranges
                0x00000000000000a8       0x38 obj_evb1000/lcd.o
 .debug_aranges
                0x00000000000000e0       0x28 obj_evb1000/stm32f10x_it.o
 .debug_aranges
                0x0000000000000108       0x50 obj_evb1000/syscalls.o
 .debug_aranges
                0x0000000000000158       0x68 obj_evb1000/dw1000-arch.o
 .debug_aranges
                0x00000000000001c0      0x308 obj_evb1000/deca_device.o
 .debug_aranges
                0x00000000000004c8       0x18 obj_evb1000/deca_params_init.o
 .debug_aranges
                0x00000000000004e0       0x20 obj_evb1000/deca_range_tables.o
 .debug_aranges
                0x0000000000000500       0xc0 obj_evb1000/dw1000.o
 .debug_aranges
                0x00000000000005c0       0x50 obj_evb1000/dw1000-ranging.o
 .debug_aranges
                0x0000000000000610       0x28 obj_evb1000/system_stm32f10x.o
 .debug_aranges
                0x0000000000000638       0xc8 obj_evb1000/core_cm3.o
 .debug_aranges
                0x0000000000000700       0x40 obj_evb1000/misc.o
 .debug_aranges
                0x0000000000000740       0xa8 obj_evb1000/stm32f10x_gpio.o
 .debug_aranges
                0x00000000000007e8      0x160 obj_evb1000/stm32f10x_rcc.o
 .debug_aranges
                0x0000000000000948       0x50 obj_evb1000/stm32f10x_exti.o
 .debug_aranges
                0x0000000000000998       0x80 obj_evb1000/stm32f10x_rtc.o
 .debug_aranges
                0x0000000000000a18       0x78 obj_evb1000/stm32f10x_bkp.o
 .debug_aranges
                0x0000000000000a90       0xd8 obj_evb1000/stm32f10x_flash.o
 .debug_aranges
                0x0000000000000b68       0x48 obj_evb1000/stm32f10x_iwdg.o
 .debug_aranges
                0x0000000000000bb0       0x60 obj_evb1000/stm32f10x_pwr.o
 .debug_aranges
                0x0000000000000c10       0xd0 obj_evb1000/stm32f10x_spi.o
 .debug_aranges
                0x0000000000000ce0       0x90 obj_evb1000/usbd_core.o
 .debug_aranges
                0x0000000000000d70       0x50 obj_evb1000/usbd_ioreq.o
 .debug_aranges
                0x0000000000000dc0       0x50 obj_evb1000/usbd_req.o
 .debug_aranges
                0x0000000000000e10       0x58 obj_evb1000/usbd_cdc_core.o
 .debug_aranges
                0x0000000000000e68       0x40 obj_evb1000/deca_usb.o
 .debug_aranges
                0x0000000000000ea8       0x50 obj_evb1000/deca_usb_bsp_evk1000.o
 .debug_aranges
                0x0000000000000ef8       0x50 obj_evb1000/usbd_desc.o
 .debug_aranges
                0x0000000000000f48       0x28 obj_evb1000/usbd_usr.o
 .debug_aranges
                0x0000000000000f70      0x130 obj_evb1000/usb_core.o
 .debug_aranges
                0x00000000000010a0       0x20 obj_evb1000/usb_dcd_int.o
 .debug_aranges
                0x00000000000010c0       0x80 obj_evb1000/usb_dcd.o
 .debug_aranges
                0x0000000000001140       0x50 obj_evb1000/clock.o
 .debug_aranges
                0x0000000000001190       0x40 obj_evb1000/watchdog.o
 .debug_aranges
                0x00000000000011d0       0x38 obj_evb1000/rtimer-arch.o
 .debug_aranges
                0x0000000000001208       0x28 obj_evb1000/spix.o
 .debug_aranges
                0x0000000000001230       0x28 contiki-evb1000.a(autostart.o)
 .debug_aranges
                0x0000000000001258       0x58 contiki-evb1000.a(ctimer.o)
 .debug_aranges
                0x00000000000012b0       0x30 contiki-evb1000.a(energest.o)
 .debug_aranges
                0x00000000000012e0       0x90 contiki-evb1000.a(etimer.o)
 .debug_aranges
                0x0000000000001370       0x80 contiki-evb1000.a(process.o)
 .debug_aranges
                0x00000000000013f0       0x30 contiki-evb1000.a(rtimer.o)
 .debug_aranges
                0x0000000000001420       0x40 contiki-evb1000.a(timer.o)
 .debug_aranges
                0x0000000000001460       0x30 contiki-evb1000.a(serial-line.o)
 .debug_aranges
                0x0000000000001490       0x50 contiki-evb1000.a(leds.o)
 .debug_aranges
                0x00000000000014e0       0x78 contiki-evb1000.a(list.o)
 .debug_aranges
                0x0000000000001558       0x40 contiki-evb1000.a(ringbuf.o)
 .debug_aranges
                0x0000000000001598       0xb8 contiki-evb1000.a(uip6.o)
 .debug_aranges
                0x0000000000001650       0x28 contiki-evb1000.a(uip-nd6.o)
 .debug_aranges
                0x0000000000001678       0xa8 contiki-evb1000.a(tcpip.o)
 .debug_aranges
                0x0000000000001720      0x1a0 contiki-evb1000.a(rpl-dag.o)
 .debug_aranges
                0x00000000000018c0       0xa0 contiki-evb1000.a(rpl-timers.o)
 .debug_aranges
                0x0000000000001960       0x40 contiki-evb1000.a(rpl-ext-header.)
 .debug_aranges
                0x00000000000019a0       0x68 contiki-evb1000.a(rpl.o)
 .debug_aranges
                0x0000000000001a08       0x60 contiki-evb1000.a(rpl-mrhof.o)
 .debug_aranges
                0x0000000000001a68       0x78 contiki-evb1000.a(queuebuf.o)
 .debug_aranges
                0x0000000000001ae0       0x78 contiki-evb1000.a(nbr-table.o)
 .debug_aranges
                0x0000000000001b58       0xc0 contiki-evb1000.a(packetbuf.o)
 .debug_aranges
                0x0000000000001c18       0x20 contiki-evb1000.a(netstack.o)
 .debug_aranges
                0x0000000000001c38       0x30 contiki-evb1000.a(linkaddr.o)
 .debug_aranges
                0x0000000000001c68       0x50 contiki-evb1000.a(link-stats.o)
 .debug_aranges
                0x0000000000001cb8       0x58 contiki-evb1000.a(nullrdc.o)
 .debug_aranges
                0x0000000000001d10       0x30 contiki-evb1000.a(nullsec.o)
 .debug_aranges
                0x0000000000001d40       0x40 contiki-evb1000.a(memb.o)
 .debug_aranges
                0x0000000000001d80       0x28 contiki-evb1000.a(random.o)
 .debug_aranges
                0x0000000000001da8       0x60 contiki-evb1000.a(uip-icmp6.o)
 .debug_aranges
                0x0000000000001e08       0xc8 contiki-evb1000.a(uip-ds6.o)
 .debug_aranges
                0x0000000000001ed0       0xc0 contiki-evb1000.a(uip-ds6-route.o)
 .debug_aranges
                0x0000000000001f90       0x70 contiki-evb1000.a(uip-ds6-nbr.o)
 .debug_aranges
                0x0000000000002000       0x88 contiki-evb1000.a(sicslowpan.o)
 .debug_aranges
                0x0000000000002088       0x20 contiki-evb1000.a(uip-debug.o)
 .debug_aranges
                0x00000000000020a8       0x78 contiki-evb1000.a(rpl-icmp6.o)
 .debug_aranges
                0x0000000000002120       0x48 contiki-evb1000.a(rpl-nbr-policy.)
 .debug_aranges
                0x0000000000002168       0x28 contiki-evb1000.a(mac-sequence.o)
 .debug_aranges
                0x0000000000002190       0x68 contiki-evb1000.a(csma.o)
 .debug_aranges
                0x00000000000021f8       0x78 contiki-evb1000.a(frame802154.o)
 .debug_aranges
                0x0000000000002270       0x20 contiki-evb1000.a(mac.o)
 .debug_aranges
                0x0000000000002290       0x38 contiki-evb1000.a(framer-802154.o)
 .debug_aranges
                0x00000000000022c8       0x48 contiki-evb1000.a(stimer.o)
 .debug_aranges
                0x0000000000002310       0x20 /usr/lib/gcc/arm-none-eabi/6.3.1/thumb/v7-m/libgcc.a(_arm_addsubdf3.o)
 .debug_aranges
                0x0000000000002330       0x20 /usr/lib/gcc/arm-none-eabi/6.3.1/thumb/v7-m/libgcc.a(_arm_muldivdf3.o)
 .debug_aranges
                0x0000000000002350       0x20 /usr/lib/gcc/arm-none-eabi/6.3.1/thumb/v7-m/libgcc.a(_arm_cmpdf2.o)
 .debug_aranges
                0x0000000000002370       0x20 /usr/lib/gcc/arm-none-eabi/6.3.1/thumb/v7-m/libgcc.a(_arm_fixdfsi.o)
 .debug_aranges
                0x0000000000002390       0x20 /usr/lib/gcc/arm-none-eabi/6.3.1/thumb/v7-m/libgcc.a(_arm_fixunsdfsi.o)
 .debug_aranges
                0x00000000000023b0       0x20 /usr/lib/gcc/arm-none-eabi/6.3.1/thumb/v7-m/libgcc.a(_arm_truncdfsf2.o)
 .debug_aranges
                0x00000000000023d0       0x20 /usr/lib/gcc/arm-none-eabi/6.3.1/thumb/v7-m/libgcc.a(_arm_addsubsf3.o)
 .debug_aranges
                0x00000000000023f0       0x20 /usr/lib/gcc/arm-none-eabi/6.3.1/thumb/v7-m/libgcc.a(_fixdfdi.o)
 .debug_aranges
                0x0000000000002410       0x20 /usr/lib/gcc/arm-none-eabi/6.3.1/thumb/v7-m/libgcc.a(_fixunsdfdi.o)
 .debug_aranges
                0x0000000000002430       0x20 /usr/lib/gcc/arm-none-eabi/6.3.1/../../../arm-none-eabi/lib/libc.a(lib_a-atexit.o)
 .debug_aranges
                0x0000000000002450       0x20 /usr/lib/gcc/arm-none-eabi/6.3.1/../../../arm-none-eabi/lib/libc.a(lib_a-fini.o)
 .debug_aranges
                0x0000000000002470       0x18 /usr/lib/gcc/arm-none-eabi/6.3.1/../../../arm-none-eabi/lib/libc.a(lib_a-impure.o)
 .debug_aranges
                0x0000000000002488       0x20 /usr/lib/gcc/arm-none-eabi/6.3.1/../../../arm-none-eabi/lib/libc.a(lib_a-init.o)
 .debug_aranges
                0x00000000000024a8       0x20 /usr/lib/gcc/arm-none-eabi/6.3.1/../../../arm-none-eabi/lib/libc.a(lib_a-memcmp.o)
 .debug_aranges
                0x00000000000024c8       0x20 /usr/lib/gcc/arm-none-eabi/6.3.1/../../../arm-none-eabi/lib/libc.a(lib_a-memcpy-stub.o)
 .debug_aranges
                0x00000000000024e8       0x20 /usr/lib/gcc/arm-none-eabi/6.3.1/../../../arm-none-eabi/lib/libc.a(lib_a-memmove.o)
 .debug_aranges
                0x0000000000002508       0x20 /usr/lib/gcc/arm-none-eabi/6.3.1/../../../arm-none-eabi/lib/libc.a(lib_a-memset.o)
 .debug_aranges
                0x0000000000002528       0x20 /usr/lib/gcc/arm-none-eabi/6.3.1/../../../arm-none-eabi/lib/libc.a(lib_a-printf.o)
 .debug_aranges
                0x0000000000002548       0x20 /usr/lib/gcc/arm-none-eabi/6.3.1/../../../arm-none-eabi/lib/libc.a(lib_a-putchar.o)
 .debug_aranges
                0x0000000000002568       0x20 /usr/lib/gcc/arm-none-eabi/6.3.1/../../../arm-none-eabi/lib/libc.a(lib_a-puts.o)
 .debug_aranges
                0x0000000000002588       0x20 /usr/lib/gcc/arm-none-eabi/6.3.1/../../../arm-none-eabi/lib/libc.a(lib_a-rand.o)
 .debug_aranges
                0x00000000000025a8       0x20 /usr/lib/gcc/arm-none-eabi/6.3.1/../../../arm-none-eabi/lib/libc.a(lib_a-strlen-stub.o)
 .debug_aranges
                0x00000000000025c8       0x20 /usr/lib/gcc/arm-none-eabi/6.3.1/../../../arm-none-eabi/lib/libc.a(lib_a-vfprintf.o)
 .debug_aranges
                0x00000000000025e8       0x20 /usr/lib/gcc/arm-none-eabi/6.3.1/../../../arm-none-eabi/lib/libc.a(lib_a-wsetup.o)
 .debug_aranges
                0x0000000000002608       0x20 /usr/lib/gcc/arm-none-eabi/6.3.1/../../../arm-none-eabi/lib/libc.a(lib_a-__atexit.o)
 .debug_aranges
                0x0000000000002628       0x28 /usr/lib/gcc/arm-none-eabi/6.3.1/../../../arm-none-eabi/lib/libc.a(lib_a-__call_atexit.o)
 .debug_aranges
                0x0000000000002650       0x20 /usr/lib/gcc/arm-none-eabi/6.3.1/../../../arm-none-eabi/lib/libc.a(lib_a-dtoa.o)
 .debug_aranges
                0x0000000000002670       0x20 /usr/lib/gcc/arm-none-eabi/6.3.1/../../../arm-none-eabi/lib/libc.a(lib_a-fflush.o)
 .debug_aranges
                0x0000000000002690       0x20 /usr/lib/gcc/arm-none-eabi/6.3.1/../../../arm-none-eabi/lib/libc.a(lib_a-findfp.o)
 .debug_aranges
                0x00000000000026b0       0x20 /usr/lib/gcc/arm-none-eabi/6.3.1/../../../arm-none-eabi/lib/libc.a(lib_a-freer.o)
 .debug_aranges
                0x00000000000026d0       0x20 /usr/lib/gcc/arm-none-eabi/6.3.1/../../../arm-none-eabi/lib/libc.a(lib_a-fvwrite.o)
 .debug_aranges
                0x00000000000026f0       0x20 /usr/lib/gcc/arm-none-eabi/6.3.1/../../../arm-none-eabi/lib/libc.a(lib_a-fwalk.o)
 .debug_aranges
                0x0000000000002710       0x20 /usr/lib/gcc/arm-none-eabi/6.3.1/../../../arm-none-eabi/lib/libc.a(lib_a-locale.o)
 .debug_aranges
                0x0000000000002730       0x20 /usr/lib/gcc/arm-none-eabi/6.3.1/../../../arm-none-eabi/lib/libc.a(lib_a-makebuf.o)
 .debug_aranges
                0x0000000000002750       0x20 /usr/lib/gcc/arm-none-eabi/6.3.1/../../../arm-none-eabi/lib/libc.a(lib_a-mallocr.o)
 .debug_aranges
                0x0000000000002770       0x20 /usr/lib/gcc/arm-none-eabi/6.3.1/../../../arm-none-eabi/lib/libc.a(lib_a-memchr-stub.o)
 .debug_aranges
                0x0000000000002790       0x20 /usr/lib/gcc/arm-none-eabi/6.3.1/../../../arm-none-eabi/lib/libc.a(lib_a-mlock.o)
 .debug_aranges
                0x00000000000027b0       0x20 /usr/lib/gcc/arm-none-eabi/6.3.1/../../../arm-none-eabi/lib/libc.a(lib_a-mprec.o)
 .debug_aranges
                0x00000000000027d0       0x20 /usr/lib/gcc/arm-none-eabi/6.3.1/../../../arm-none-eabi/lib/libc.a(lib_a-putc.o)
 .debug_aranges
                0x00000000000027f0       0x20 /usr/lib/gcc/arm-none-eabi/6.3.1/../../../arm-none-eabi/lib/libc.a(lib_a-reallocr.o)
 .debug_aranges
                0x0000000000002810       0x20 /usr/lib/gcc/arm-none-eabi/6.3.1/../../../arm-none-eabi/lib/libc.a(lib_a-sbrkr.o)
 .debug_aranges
                0x0000000000002830       0x20 /usr/lib/gcc/arm-none-eabi/6.3.1/../../../arm-none-eabi/lib/libc.a(lib_a-stdio.o)
 .debug_aranges
                0x0000000000002850       0x20 /usr/lib/gcc/arm-none-eabi/6.3.1/../../../arm-none-eabi/lib/libc.a(lib_a-strcmp.o)
 .debug_aranges
                0x0000000000002870       0x20 /usr/lib/gcc/arm-none-eabi/6.3.1/../../../arm-none-eabi/lib/libc.a(lib_a-vfiprintf.o)
 .debug_aranges
                0x0000000000002890       0x20 /usr/lib/gcc/arm-none-eabi/6.3.1/../../../arm-none-eabi/lib/libc.a(lib_a-wbuf.o)
 .debug_aranges
                0x00000000000028b0       0x20 /usr/lib/gcc/arm-none-eabi/6.3.1/../../../arm-none-eabi/lib/libc.a(lib_a-writer.o)
 .debug_aranges
                0x00000000000028d0       0x20 /usr/lib/gcc/arm-none-eabi/6.3.1/../../../arm-none-eabi/lib/libc.a(lib_a-callocr.o)
 .debug_aranges
                0x00000000000028f0       0x20 /usr/lib/gcc/arm-none-eabi/6.3.1/../../../arm-none-eabi/lib/libc.a(lib_a-closer.o)
 .debug_aranges
                0x0000000000002910       0x20 /usr/lib/gcc/arm-none-eabi/6.3.1/../../../arm-none-eabi/lib/libc.a(lib_a-fclose.o)
 .debug_aranges
                0x0000000000002930       0x20 /usr/lib/gcc/arm-none-eabi/6.3.1/../../../arm-none-eabi/lib/libc.a(lib_a-fputwc.o)
 .debug_aranges
                0x0000000000002950       0x20 /usr/lib/gcc/arm-none-eabi/6.3.1/../../../arm-none-eabi/lib/libc.a(lib_a-fstatr.o)
 .debug_aranges
                0x0000000000002970       0x20 /usr/lib/gcc/arm-none-eabi/6.3.1/../../../arm-none-eabi/lib/libc.a(lib_a-isattyr.o)
 .debug_aranges
                0x0000000000002990       0x20 /usr/lib/gcc/arm-none-eabi/6.3.1/../../../arm-none-eabi/lib/libc.a(lib_a-lseekr.o)
 .debug_aranges
                0x00000000000029b0       0x20 /usr/lib/gcc/arm-none-eabi/6.3.1/../../../arm-none-eabi/lib/libc.a(lib_a-readr.o)
 .debug_aranges
                0x00000000000029d0       0x20 /usr/lib/gcc/arm-none-eabi/6.3.1/../../../arm-none-eabi/lib/libc.a(lib_a-reent.o)
 .debug_aranges
                0x00000000000029f0       0x20 /usr/lib/gcc/arm-none-eabi/6.3.1/../../../arm-none-eabi/lib/libc.a(lib_a-wcrtomb.o)
 .debug_aranges
                0x0000000000002a10       0x20 /usr/lib/gcc/arm-none-eabi/6.3.1/../../../arm-none-eabi/lib/libc.a(lib_a-wctomb_r.o)
 .debug_aranges
                0x0000000000002a30       0x20 /usr/lib/gcc/arm-none-eabi/6.3.1/thumb/v7-m/libgcc.a(_udivsi3.o)
 .debug_aranges
                0x0000000000002a50       0x20 /usr/lib/gcc/arm-none-eabi/6.3.1/thumb/v7-m/libgcc.a(_divsi3.o)
 .debug_aranges
                0x0000000000002a70       0x20 /usr/lib/gcc/arm-none-eabi/6.3.1/thumb/v7-m/libgcc.a(_dvmd_tls.o)
 .debug_aranges
                0x0000000000002a90       0x20 /usr/lib/gcc/arm-none-eabi/6.3.1/thumb/v7-m/libgcc.a(_arm_unorddf2.o)
 .debug_aranges
                0x0000000000002ab0       0x20 /usr/lib/gcc/arm-none-eabi/6.3.1/thumb/v7-m/libgcc.a(_aeabi_uldivmod.o)
 .debug_aranges
                0x0000000000002ad0       0x20 /usr/lib/gcc/arm-none-eabi/6.3.1/thumb/v7-m/libgcc.a(_udivmoddi4.o)

.debug_ranges   0x0000000000000000     0x4e18
 .debug_ranges  0x0000000000000000       0x30 hello-world.co
 .debug_ranges  0x0000000000000030       0x10 obj_evb1000/contiki-main.o
 .debug_ranges  0x0000000000000040       0x28 obj_evb1000/board.o
 .debug_ranges  0x0000000000000068       0x20 obj_evb1000/leds-arch.o
 .debug_ranges  0x0000000000000088       0x58 obj_evb1000/lcd.o
 .debug_ranges  0x00000000000000e0       0x18 obj_evb1000/stm32f10x_it.o
 .debug_ranges  0x00000000000000f8       0x40 obj_evb1000/syscalls.o
 .debug_ranges  0x0000000000000138       0xf8 obj_evb1000/dw1000-arch.o
 .debug_ranges  0x0000000000000230      0xfe0 obj_evb1000/deca_device.o
 .debug_ranges  0x0000000000001210       0x10 obj_evb1000/deca_range_tables.o
 .debug_ranges  0x0000000000001220      0x178 obj_evb1000/dw1000.o
 .debug_ranges  0x0000000000001398      0x348 obj_evb1000/dw1000-ranging.o
 .debug_ranges  0x00000000000016e0       0x38 obj_evb1000/system_stm32f10x.o
 .debug_ranges  0x0000000000001718       0xb8 obj_evb1000/core_cm3.o
 .debug_ranges  0x00000000000017d0       0x30 obj_evb1000/misc.o
 .debug_ranges  0x0000000000001800       0x98 obj_evb1000/stm32f10x_gpio.o
 .debug_ranges  0x0000000000001898      0x170 obj_evb1000/stm32f10x_rcc.o
 .debug_ranges  0x0000000000001a08       0x40 obj_evb1000/stm32f10x_exti.o
 .debug_ranges  0x0000000000001a48       0xd0 obj_evb1000/stm32f10x_rtc.o
 .debug_ranges  0x0000000000001b18       0x68 obj_evb1000/stm32f10x_bkp.o
 .debug_ranges  0x0000000000001b80       0xe0 obj_evb1000/stm32f10x_flash.o
 .debug_ranges  0x0000000000001c60       0x38 obj_evb1000/stm32f10x_iwdg.o
 .debug_ranges  0x0000000000001c98       0x50 obj_evb1000/stm32f10x_pwr.o
 .debug_ranges  0x0000000000001ce8       0xc0 obj_evb1000/stm32f10x_spi.o
 .debug_ranges  0x0000000000001da8       0xc0 obj_evb1000/usbd_core.o
 .debug_ranges  0x0000000000001e68       0x40 obj_evb1000/usbd_ioreq.o
 .debug_ranges  0x0000000000001ea8       0xf8 obj_evb1000/usbd_req.o
 .debug_ranges  0x0000000000001fa0       0x60 obj_evb1000/usbd_cdc_core.o
 .debug_ranges  0x0000000000002000       0x30 obj_evb1000/deca_usb.o
 .debug_ranges  0x0000000000002030       0x40 obj_evb1000/deca_usb_bsp_evk1000.o
 .debug_ranges  0x0000000000002070       0x70 obj_evb1000/usbd_desc.o
 .debug_ranges  0x00000000000020e0       0x18 obj_evb1000/usbd_usr.o
 .debug_ranges  0x00000000000020f8      0x1c0 obj_evb1000/usb_core.o
 .debug_ranges  0x00000000000022b8      0x140 obj_evb1000/usb_dcd_int.o
 .debug_ranges  0x00000000000023f8       0x70 obj_evb1000/usb_dcd.o
 .debug_ranges  0x0000000000002468       0xa0 obj_evb1000/clock.o
 .debug_ranges  0x0000000000002508       0x30 obj_evb1000/watchdog.o
 .debug_ranges  0x0000000000002538       0x28 obj_evb1000/rtimer-arch.o
 .debug_ranges  0x0000000000002560       0x18 obj_evb1000/spix.o
 .debug_ranges  0x0000000000002578       0x18 contiki-evb1000.a(autostart.o)
 .debug_ranges  0x0000000000002590       0x78 contiki-evb1000.a(ctimer.o)
 .debug_ranges  0x0000000000002608       0x20 contiki-evb1000.a(energest.o)
 .debug_ranges  0x0000000000002628       0xe0 contiki-evb1000.a(etimer.o)
 .debug_ranges  0x0000000000002708      0x120 contiki-evb1000.a(process.o)
 .debug_ranges  0x0000000000002828       0x20 contiki-evb1000.a(rtimer.o)
 .debug_ranges  0x0000000000002848       0x30 contiki-evb1000.a(timer.o)
 .debug_ranges  0x0000000000002878       0x50 contiki-evb1000.a(serial-line.o)
 .debug_ranges  0x00000000000028c8       0x98 contiki-evb1000.a(leds.o)
 .debug_ranges  0x0000000000002960       0xf0 contiki-evb1000.a(list.o)
 .debug_ranges  0x0000000000002a50       0x30 contiki-evb1000.a(ringbuf.o)
 .debug_ranges  0x0000000000002a80       0xf0 contiki-evb1000.a(uip6.o)
 .debug_ranges  0x0000000000002b70       0x78 contiki-evb1000.a(uip-nd6.o)
 .debug_ranges  0x0000000000002be8      0x1e0 contiki-evb1000.a(tcpip.o)
 .debug_ranges  0x0000000000002dc8      0x348 contiki-evb1000.a(rpl-dag.o)
 .debug_ranges  0x0000000000003110      0x108 contiki-evb1000.a(rpl-timers.o)
 .debug_ranges  0x0000000000003218       0x30 contiki-evb1000.a(rpl-ext-header.)
 .debug_ranges  0x0000000000003248       0x58 contiki-evb1000.a(rpl.o)
 .debug_ranges  0x00000000000032a0       0xd0 contiki-evb1000.a(rpl-mrhof.o)
 .debug_ranges  0x0000000000003370       0x80 contiki-evb1000.a(queuebuf.o)
 .debug_ranges  0x00000000000033f0      0x348 contiki-evb1000.a(nbr-table.o)
 .debug_ranges  0x0000000000003738      0x188 contiki-evb1000.a(packetbuf.o)
 .debug_ranges  0x00000000000038c0       0x10 contiki-evb1000.a(netstack.o)
 .debug_ranges  0x00000000000038d0       0x20 contiki-evb1000.a(linkaddr.o)
 .debug_ranges  0x00000000000038f0       0x58 contiki-evb1000.a(link-stats.o)
 .debug_ranges  0x0000000000003948      0x108 contiki-evb1000.a(nullrdc.o)
 .debug_ranges  0x0000000000003a50       0x20 contiki-evb1000.a(nullsec.o)
 .debug_ranges  0x0000000000003a70       0x30 contiki-evb1000.a(memb.o)
 .debug_ranges  0x0000000000003aa0       0x18 contiki-evb1000.a(random.o)
 .debug_ranges  0x0000000000003ab8       0x80 contiki-evb1000.a(uip-icmp6.o)
 .debug_ranges  0x0000000000003b38       0xf8 contiki-evb1000.a(uip-ds6.o)
 .debug_ranges  0x0000000000003c30       0xf8 contiki-evb1000.a(uip-ds6-route.o)
 .debug_ranges  0x0000000000003d28       0x78 contiki-evb1000.a(uip-ds6-nbr.o)
 .debug_ranges  0x0000000000003da0      0x238 contiki-evb1000.a(sicslowpan.o)
 .debug_ranges  0x0000000000003fd8       0x10 contiki-evb1000.a(uip-debug.o)
 .debug_ranges  0x0000000000003fe8      0x258 contiki-evb1000.a(rpl-icmp6.o)
 .debug_ranges  0x0000000000004240       0x88 contiki-evb1000.a(rpl-nbr-policy.)
 .debug_ranges  0x00000000000042c8       0x18 contiki-evb1000.a(mac-sequence.o)
 .debug_ranges  0x00000000000042e0      0x158 contiki-evb1000.a(csma.o)
 .debug_ranges  0x0000000000004438       0x80 contiki-evb1000.a(frame802154.o)
 .debug_ranges  0x00000000000044b8       0x10 contiki-evb1000.a(mac.o)
 .debug_ranges  0x00000000000044c8       0x28 contiki-evb1000.a(framer-802154.o)
 .debug_ranges  0x00000000000044f0       0x38 contiki-evb1000.a(stimer.o)
 .debug_ranges  0x0000000000004528       0x28 /usr/lib/gcc/arm-none-eabi/6.3.1/../../../arm-none-eabi/lib/libc.a(lib_a-puts.o)
 .debug_ranges  0x0000000000004550       0x10 /usr/lib/gcc/arm-none-eabi/6.3.1/../../../arm-none-eabi/lib/libc.a(lib_a-strlen-stub.o)
 .debug_ranges  0x0000000000004560      0x138 /usr/lib/gcc/arm-none-eabi/6.3.1/../../../arm-none-eabi/lib/libc.a(lib_a-vfprintf.o)
 .debug_ranges  0x0000000000004698       0x20 /usr/lib/gcc/arm-none-eabi/6.3.1/../../../arm-none-eabi/lib/libc.a(lib_a-wsetup.o)
 .debug_ranges  0x00000000000046b8       0x40 /usr/lib/gcc/arm-none-eabi/6.3.1/../../../arm-none-eabi/lib/libc.a(lib_a-__call_atexit.o)
 .debug_ranges  0x00000000000046f8       0x38 /usr/lib/gcc/arm-none-eabi/6.3.1/../../../arm-none-eabi/lib/libc.a(lib_a-fflush.o)
 .debug_ranges  0x0000000000004730       0x68 /usr/lib/gcc/arm-none-eabi/6.3.1/../../../arm-none-eabi/lib/libc.a(lib_a-findfp.o)
 .debug_ranges  0x0000000000004798       0x28 /usr/lib/gcc/arm-none-eabi/6.3.1/../../../arm-none-eabi/lib/libc.a(lib_a-fvwrite.o)
 .debug_ranges  0x00000000000047c0       0x18 /usr/lib/gcc/arm-none-eabi/6.3.1/../../../arm-none-eabi/lib/libc.a(lib_a-locale.o)
 .debug_ranges  0x00000000000047d8       0x28 /usr/lib/gcc/arm-none-eabi/6.3.1/../../../arm-none-eabi/lib/libc.a(lib_a-mallocr.o)
 .debug_ranges  0x0000000000004800       0x80 /usr/lib/gcc/arm-none-eabi/6.3.1/../../../arm-none-eabi/lib/libc.a(lib_a-mprec.o)
 .debug_ranges  0x0000000000004880       0x60 /usr/lib/gcc/arm-none-eabi/6.3.1/../../../arm-none-eabi/lib/libc.a(lib_a-putc.o)
 .debug_ranges  0x00000000000048e0       0xf0 /usr/lib/gcc/arm-none-eabi/6.3.1/../../../arm-none-eabi/lib/libc.a(lib_a-reallocr.o)
 .debug_ranges  0x00000000000049d0      0x1f0 /usr/lib/gcc/arm-none-eabi/6.3.1/../../../arm-none-eabi/lib/libc.a(lib_a-vfiprintf.o)
 .debug_ranges  0x0000000000004bc0       0x20 /usr/lib/gcc/arm-none-eabi/6.3.1/../../../arm-none-eabi/lib/libc.a(lib_a-wbuf.o)
 .debug_ranges  0x0000000000004be0       0x20 /usr/lib/gcc/arm-none-eabi/6.3.1/../../../arm-none-eabi/lib/libc.a(lib_a-writer.o)
 .debug_ranges  0x0000000000004c00       0x18 /usr/lib/gcc/arm-none-eabi/6.3.1/../../../arm-none-eabi/lib/libc.a(lib_a-callocr.o)
 .debug_ranges  0x0000000000004c18       0x18 /usr/lib/gcc/arm-none-eabi/6.3.1/../../../arm-none-eabi/lib/libc.a(lib_a-closer.o)
 .debug_ranges  0x0000000000004c30       0x38 /usr/lib/gcc/arm-none-eabi/6.3.1/../../../arm-none-eabi/lib/libc.a(lib_a-fclose.o)
 .debug_ranges  0x0000000000004c68       0x50 /usr/lib/gcc/arm-none-eabi/6.3.1/../../../arm-none-eabi/lib/libc.a(lib_a-fputwc.o)
 .debug_ranges  0x0000000000004cb8       0x18 /usr/lib/gcc/arm-none-eabi/6.3.1/../../../arm-none-eabi/lib/libc.a(lib_a-fstatr.o)
 .debug_ranges  0x0000000000004cd0       0x18 /usr/lib/gcc/arm-none-eabi/6.3.1/../../../arm-none-eabi/lib/libc.a(lib_a-isattyr.o)
 .debug_ranges  0x0000000000004ce8       0x20 /usr/lib/gcc/arm-none-eabi/6.3.1/../../../arm-none-eabi/lib/libc.a(lib_a-lseekr.o)
 .debug_ranges  0x0000000000004d08       0x20 /usr/lib/gcc/arm-none-eabi/6.3.1/../../../arm-none-eabi/lib/libc.a(lib_a-readr.o)
 .debug_ranges  0x0000000000004d28       0xf0 /usr/lib/gcc/arm-none-eabi/6.3.1/thumb/v7-m/libgcc.a(_udivmoddi4.o)

.debug_line     0x0000000000000000    0x1a273
 .debug_line    0x0000000000000000      0x112 hello-world.co
 .debug_line    0x0000000000000112      0x4a0 obj_evb1000/contiki-main.o
 .debug_line    0x00000000000005b2      0x26d obj_evb1000/board.o
 .debug_line    0x000000000000081f      0x22e obj_evb1000/leds-arch.o
 .debug_line    0x0000000000000a4d      0x33d obj_evb1000/lcd.o
 .debug_line    0x0000000000000d8a      0x1ea obj_evb1000/stm32f10x_it.o
 .debug_line    0x0000000000000f74      0x346 obj_evb1000/syscalls.o
 .debug_line    0x00000000000012ba      0x4eb obj_evb1000/dw1000-arch.o
 .debug_line    0x00000000000017a5     0x189a obj_evb1000/deca_device.o
 .debug_line    0x000000000000303f      0x108 obj_evb1000/deca_params_init.o
 .debug_line    0x0000000000003147      0x18c obj_evb1000/deca_range_tables.o
 .debug_line    0x00000000000032d3      0x625 obj_evb1000/dw1000.o
 .debug_line    0x00000000000038f8      0x746 obj_evb1000/dw1000-ranging.o
 .debug_line    0x000000000000403e      0x1dd obj_evb1000/system_stm32f10x.o
 .debug_line    0x000000000000421b      0x23e obj_evb1000/core_cm3.o
 .debug_line    0x0000000000004459      0x218 obj_evb1000/misc.o
 .debug_line    0x0000000000004671      0x3b4 obj_evb1000/stm32f10x_gpio.o
 .debug_line    0x0000000000004a25      0x560 obj_evb1000/stm32f10x_rcc.o
 .debug_line    0x0000000000004f85      0x26a obj_evb1000/stm32f10x_exti.o
 .debug_line    0x00000000000051ef      0x2a9 obj_evb1000/stm32f10x_rtc.o
 .debug_line    0x0000000000005498      0x28c obj_evb1000/stm32f10x_bkp.o
 .debug_line    0x0000000000005724      0x4b5 obj_evb1000/stm32f10x_flash.o
 .debug_line    0x0000000000005bd9      0x1c4 obj_evb1000/stm32f10x_iwdg.o
 .debug_line    0x0000000000005d9d      0x272 obj_evb1000/stm32f10x_pwr.o
 .debug_line    0x000000000000600f      0x438 obj_evb1000/stm32f10x_spi.o
 .debug_line    0x0000000000006447      0x3db obj_evb1000/usbd_core.o
 .debug_line    0x0000000000006822      0x286 obj_evb1000/usbd_ioreq.o
 .debug_line    0x0000000000006aa8      0x3c6 obj_evb1000/usbd_req.o
 .debug_line    0x0000000000006e6e      0x3c3 obj_evb1000/usbd_cdc_core.o
 .debug_line    0x0000000000007231      0x328 obj_evb1000/deca_usb.o
 .debug_line    0x0000000000007559      0x29d obj_evb1000/deca_usb_bsp_evk1000.o
 .debug_line    0x00000000000077f6      0x248 obj_evb1000/usbd_desc.o
 .debug_line    0x0000000000007a3e      0x1ce obj_evb1000/usbd_usr.o
 .debug_line    0x0000000000007c0c      0x7ce obj_evb1000/usb_core.o
 .debug_line    0x00000000000083da      0x3c8 obj_evb1000/usb_dcd_int.o
 .debug_line    0x00000000000087a2      0x3a6 obj_evb1000/usb_dcd.o
 .debug_line    0x0000000000008b48      0x284 obj_evb1000/clock.o
 .debug_line    0x0000000000008dcc      0x1ce obj_evb1000/watchdog.o
 .debug_line    0x0000000000008f9a      0x2a0 obj_evb1000/rtimer-arch.o
 .debug_line    0x000000000000923a      0x1f6 obj_evb1000/spix.o
 .debug_line    0x0000000000009430       0xb5 contiki-evb1000.a(autostart.o)
 .debug_line    0x00000000000094e5      0x248 contiki-evb1000.a(ctimer.o)
 .debug_line    0x000000000000972d       0x6b contiki-evb1000.a(energest.o)
 .debug_line    0x0000000000009798      0x2b2 contiki-evb1000.a(etimer.o)
 .debug_line    0x0000000000009a4a      0x2c8 contiki-evb1000.a(process.o)
 .debug_line    0x0000000000009d12      0x159 contiki-evb1000.a(rtimer.o)
 .debug_line    0x0000000000009e6b      0x13b contiki-evb1000.a(timer.o)
 .debug_line    0x0000000000009fa6      0x1f9 contiki-evb1000.a(serial-line.o)
 .debug_line    0x000000000000a19f      0x12c contiki-evb1000.a(leds.o)
 .debug_line    0x000000000000a2cb      0x1c6 contiki-evb1000.a(list.o)
 .debug_line    0x000000000000a491      0x125 contiki-evb1000.a(ringbuf.o)
 .debug_line    0x000000000000a5b6      0xb5d contiki-evb1000.a(uip6.o)
 .debug_line    0x000000000000b113      0x41f contiki-evb1000.a(uip-nd6.o)
 .debug_line    0x000000000000b532      0x620 contiki-evb1000.a(tcpip.o)
 .debug_line    0x000000000000bb52      0xcdd contiki-evb1000.a(rpl-dag.o)
 .debug_line    0x000000000000c82f      0x56b contiki-evb1000.a(rpl-timers.o)
 .debug_line    0x000000000000cd9a      0x4c1 contiki-evb1000.a(rpl-ext-header.)
 .debug_line    0x000000000000d25b      0x48b contiki-evb1000.a(rpl.o)
 .debug_line    0x000000000000d6e6      0x452 contiki-evb1000.a(rpl-mrhof.o)
 .debug_line    0x000000000000db38      0x418 contiki-evb1000.a(queuebuf.o)
 .debug_line    0x000000000000df50      0x4f2 contiki-evb1000.a(nbr-table.o)
 .debug_line    0x000000000000e442      0x509 contiki-evb1000.a(packetbuf.o)
 .debug_line    0x000000000000e94b      0x210 contiki-evb1000.a(netstack.o)
 .debug_line    0x000000000000eb5b      0x11c contiki-evb1000.a(linkaddr.o)
 .debug_line    0x000000000000ec77      0x389 contiki-evb1000.a(link-stats.o)
 .debug_line    0x000000000000f000      0x3da contiki-evb1000.a(nullrdc.o)
 .debug_line    0x000000000000f3da      0x250 contiki-evb1000.a(nullsec.o)
 .debug_line    0x000000000000f62a      0x1ae contiki-evb1000.a(memb.o)
 .debug_line    0x000000000000f7d8       0xe7 contiki-evb1000.a(random.o)
 .debug_line    0x000000000000f8bf      0x4d5 contiki-evb1000.a(uip-icmp6.o)
 .debug_line    0x000000000000fd94      0x66d contiki-evb1000.a(uip-ds6.o)
 .debug_line    0x0000000000010401      0x597 contiki-evb1000.a(uip-ds6-route.o)
 .debug_line    0x0000000000010998      0x3f6 contiki-evb1000.a(uip-ds6-nbr.o)
 .debug_line    0x0000000000010d8e      0x92a contiki-evb1000.a(sicslowpan.o)
 .debug_line    0x00000000000116b8      0x216 contiki-evb1000.a(uip-debug.o)
 .debug_line    0x00000000000118ce      0x804 contiki-evb1000.a(rpl-icmp6.o)
 .debug_line    0x00000000000120d2      0x408 contiki-evb1000.a(rpl-nbr-policy.)
 .debug_line    0x00000000000124da      0x35a contiki-evb1000.a(mac-sequence.o)
 .debug_line    0x0000000000012834      0x44f contiki-evb1000.a(csma.o)
 .debug_line    0x0000000000012c83      0x451 contiki-evb1000.a(frame802154.o)
 .debug_line    0x00000000000130d4       0x71 contiki-evb1000.a(mac.o)
 .debug_line    0x0000000000013145      0x2a5 contiki-evb1000.a(framer-802154.o)
 .debug_line    0x00000000000133ea       0xce contiki-evb1000.a(stimer.o)
 .debug_line    0x00000000000134b8      0x183 /usr/lib/gcc/arm-none-eabi/6.3.1/thumb/v7-m/libgcc.a(_arm_addsubdf3.o)
 .debug_line    0x000000000001363b      0x19f /usr/lib/gcc/arm-none-eabi/6.3.1/thumb/v7-m/libgcc.a(_arm_muldivdf3.o)
 .debug_line    0x00000000000137da       0xbe /usr/lib/gcc/arm-none-eabi/6.3.1/thumb/v7-m/libgcc.a(_arm_cmpdf2.o)
 .debug_line    0x0000000000013898       0x7a /usr/lib/gcc/arm-none-eabi/6.3.1/thumb/v7-m/libgcc.a(_arm_fixdfsi.o)
 .debug_line    0x0000000000013912       0x76 /usr/lib/gcc/arm-none-eabi/6.3.1/thumb/v7-m/libgcc.a(_arm_fixunsdfsi.o)
 .debug_line    0x0000000000013988       0x8e /usr/lib/gcc/arm-none-eabi/6.3.1/thumb/v7-m/libgcc.a(_arm_truncdfsf2.o)
 .debug_line    0x0000000000013a16      0x11a /usr/lib/gcc/arm-none-eabi/6.3.1/thumb/v7-m/libgcc.a(_arm_addsubsf3.o)
 .debug_line    0x0000000000013b30      0x104 /usr/lib/gcc/arm-none-eabi/6.3.1/thumb/v7-m/libgcc.a(_fixdfdi.o)
 .debug_line    0x0000000000013c34      0x102 /usr/lib/gcc/arm-none-eabi/6.3.1/thumb/v7-m/libgcc.a(_fixunsdfdi.o)
 .debug_line    0x0000000000013d36       0xb5 /usr/lib/gcc/arm-none-eabi/6.3.1/../../../arm-none-eabi/lib/libc.a(lib_a-atexit.o)
 .debug_line    0x0000000000013deb       0x99 /usr/lib/gcc/arm-none-eabi/6.3.1/../../../arm-none-eabi/lib/libc.a(lib_a-fini.o)
 .debug_line    0x0000000000013e84       0xe3 /usr/lib/gcc/arm-none-eabi/6.3.1/../../../arm-none-eabi/lib/libc.a(lib_a-impure.o)
 .debug_line    0x0000000000013f67       0xb3 /usr/lib/gcc/arm-none-eabi/6.3.1/../../../arm-none-eabi/lib/libc.a(lib_a-init.o)
 .debug_line    0x000000000001401a       0xff /usr/lib/gcc/arm-none-eabi/6.3.1/../../../arm-none-eabi/lib/libc.a(lib_a-memcmp.o)
 .debug_line    0x0000000000014119      0x128 /usr/lib/gcc/arm-none-eabi/6.3.1/../../../arm-none-eabi/lib/libc.a(lib_a-memcpy-stub.o)
 .debug_line    0x0000000000014241      0x11c /usr/lib/gcc/arm-none-eabi/6.3.1/../../../arm-none-eabi/lib/libc.a(lib_a-memmove.o)
 .debug_line    0x000000000001435d      0x10f /usr/lib/gcc/arm-none-eabi/6.3.1/../../../arm-none-eabi/lib/libc.a(lib_a-memset.o)
 .debug_line    0x000000000001446c      0x166 /usr/lib/gcc/arm-none-eabi/6.3.1/../../../arm-none-eabi/lib/libc.a(lib_a-printf.o)
 .debug_line    0x00000000000145d2      0x144 /usr/lib/gcc/arm-none-eabi/6.3.1/../../../arm-none-eabi/lib/libc.a(lib_a-putchar.o)
 .debug_line    0x0000000000014716      0x18a /usr/lib/gcc/arm-none-eabi/6.3.1/../../../arm-none-eabi/lib/libc.a(lib_a-puts.o)
 .debug_line    0x00000000000148a0      0x144 /usr/lib/gcc/arm-none-eabi/6.3.1/../../../arm-none-eabi/lib/libc.a(lib_a-rand.o)
 .debug_line    0x00000000000149e4       0xe8 /usr/lib/gcc/arm-none-eabi/6.3.1/../../../arm-none-eabi/lib/libc.a(lib_a-strlen-stub.o)
 .debug_line    0x0000000000014acc      0xb03 /usr/lib/gcc/arm-none-eabi/6.3.1/../../../arm-none-eabi/lib/libc.a(lib_a-vfprintf.o)
 .debug_line    0x00000000000155cf      0x1bd /usr/lib/gcc/arm-none-eabi/6.3.1/../../../arm-none-eabi/lib/libc.a(lib_a-wsetup.o)
 .debug_line    0x000000000001578c      0x17d /usr/lib/gcc/arm-none-eabi/6.3.1/../../../arm-none-eabi/lib/libc.a(lib_a-__atexit.o)
 .debug_line    0x0000000000015909      0x1a5 /usr/lib/gcc/arm-none-eabi/6.3.1/../../../arm-none-eabi/lib/libc.a(lib_a-__call_atexit.o)
 .debug_line    0x0000000000015aae      0x653 /usr/lib/gcc/arm-none-eabi/6.3.1/../../../arm-none-eabi/lib/libc.a(lib_a-dtoa.o)
 .debug_line    0x0000000000016101      0x22a /usr/lib/gcc/arm-none-eabi/6.3.1/../../../arm-none-eabi/lib/libc.a(lib_a-fflush.o)
 .debug_line    0x000000000001632b      0x256 /usr/lib/gcc/arm-none-eabi/6.3.1/../../../arm-none-eabi/lib/libc.a(lib_a-findfp.o)
 .debug_line    0x0000000000016581      0x253 /usr/lib/gcc/arm-none-eabi/6.3.1/../../../arm-none-eabi/lib/libc.a(lib_a-freer.o)
 .debug_line    0x00000000000167d4      0x279 /usr/lib/gcc/arm-none-eabi/6.3.1/../../../arm-none-eabi/lib/libc.a(lib_a-fvwrite.o)
 .debug_line    0x0000000000016a4d      0x17c /usr/lib/gcc/arm-none-eabi/6.3.1/../../../arm-none-eabi/lib/libc.a(lib_a-fwalk.o)
 .debug_line    0x0000000000016bc9      0x184 /usr/lib/gcc/arm-none-eabi/6.3.1/../../../arm-none-eabi/lib/libc.a(lib_a-locale.o)
 .debug_line    0x0000000000016d4d      0x240 /usr/lib/gcc/arm-none-eabi/6.3.1/../../../arm-none-eabi/lib/libc.a(lib_a-makebuf.o)
 .debug_line    0x0000000000016f8d      0x341 /usr/lib/gcc/arm-none-eabi/6.3.1/../../../arm-none-eabi/lib/libc.a(lib_a-mallocr.o)
 .debug_line    0x00000000000172ce      0x120 /usr/lib/gcc/arm-none-eabi/6.3.1/../../../arm-none-eabi/lib/libc.a(lib_a-memchr-stub.o)
 .debug_line    0x00000000000173ee       0xf2 /usr/lib/gcc/arm-none-eabi/6.3.1/../../../arm-none-eabi/lib/libc.a(lib_a-mlock.o)
 .debug_line    0x00000000000174e0      0x5cc /usr/lib/gcc/arm-none-eabi/6.3.1/../../../arm-none-eabi/lib/libc.a(lib_a-mprec.o)
 .debug_line    0x0000000000017aac      0x19c /usr/lib/gcc/arm-none-eabi/6.3.1/../../../arm-none-eabi/lib/libc.a(lib_a-putc.o)
 .debug_line    0x0000000000017c48      0x249 /usr/lib/gcc/arm-none-eabi/6.3.1/../../../arm-none-eabi/lib/libc.a(lib_a-reallocr.o)
 .debug_line    0x0000000000017e91      0x152 /usr/lib/gcc/arm-none-eabi/6.3.1/../../../arm-none-eabi/lib/libc.a(lib_a-sbrkr.o)
 .debug_line    0x0000000000017fe3      0x17b /usr/lib/gcc/arm-none-eabi/6.3.1/../../../arm-none-eabi/lib/libc.a(lib_a-stdio.o)
 .debug_line    0x000000000001815e       0xf9 /usr/lib/gcc/arm-none-eabi/6.3.1/../../../arm-none-eabi/lib/libc.a(lib_a-strcmp.o)
 .debug_line    0x0000000000018257      0x906 /usr/lib/gcc/arm-none-eabi/6.3.1/../../../arm-none-eabi/lib/libc.a(lib_a-vfiprintf.o)
 .debug_line    0x0000000000018b5d      0x19f /usr/lib/gcc/arm-none-eabi/6.3.1/../../../arm-none-eabi/lib/libc.a(lib_a-wbuf.o)
 .debug_line    0x0000000000018cfc      0x150 /usr/lib/gcc/arm-none-eabi/6.3.1/../../../arm-none-eabi/lib/libc.a(lib_a-writer.o)
 .debug_line    0x0000000000018e4c      0x11d /usr/lib/gcc/arm-none-eabi/6.3.1/../../../arm-none-eabi/lib/libc.a(lib_a-callocr.o)
 .debug_line    0x0000000000018f69      0x150 /usr/lib/gcc/arm-none-eabi/6.3.1/../../../arm-none-eabi/lib/libc.a(lib_a-closer.o)
 .debug_line    0x00000000000190b9      0x18f /usr/lib/gcc/arm-none-eabi/6.3.1/../../../arm-none-eabi/lib/libc.a(lib_a-fclose.o)
 .debug_line    0x0000000000019248      0x1c3 /usr/lib/gcc/arm-none-eabi/6.3.1/../../../arm-none-eabi/lib/libc.a(lib_a-fputwc.o)
 .debug_line    0x000000000001940b      0x1ce /usr/lib/gcc/arm-none-eabi/6.3.1/../../../arm-none-eabi/lib/libc.a(lib_a-fstatr.o)
 .debug_line    0x00000000000195d9      0x151 /usr/lib/gcc/arm-none-eabi/6.3.1/../../../arm-none-eabi/lib/libc.a(lib_a-isattyr.o)
 .debug_line    0x000000000001972a      0x150 /usr/lib/gcc/arm-none-eabi/6.3.1/../../../arm-none-eabi/lib/libc.a(lib_a-lseekr.o)
 .debug_line    0x000000000001987a      0x14f /usr/lib/gcc/arm-none-eabi/6.3.1/../../../arm-none-eabi/lib/libc.a(lib_a-readr.o)
 .debug_line    0x00000000000199c9      0x177 /usr/lib/gcc/arm-none-eabi/6.3.1/../../../arm-none-eabi/lib/libc.a(lib_a-reent.o)
 .debug_line    0x0000000000019b40      0x179 /usr/lib/gcc/arm-none-eabi/6.3.1/../../../arm-none-eabi/lib/libc.a(lib_a-wcrtomb.o)
 .debug_line    0x0000000000019cb9      0x167 /usr/lib/gcc/arm-none-eabi/6.3.1/../../../arm-none-eabi/lib/libc.a(lib_a-wctomb_r.o)
 .debug_line    0x0000000000019e20       0x6f /usr/lib/gcc/arm-none-eabi/6.3.1/thumb/v7-m/libgcc.a(_udivsi3.o)
 .debug_line    0x0000000000019e8f       0x6f /usr/lib/gcc/arm-none-eabi/6.3.1/thumb/v7-m/libgcc.a(_divsi3.o)
 .debug_line    0x0000000000019efe       0x61 /usr/lib/gcc/arm-none-eabi/6.3.1/thumb/v7-m/libgcc.a(_dvmd_tls.o)
 .debug_line    0x0000000000019f5f       0x6f /usr/lib/gcc/arm-none-eabi/6.3.1/thumb/v7-m/libgcc.a(_arm_unorddf2.o)
 .debug_line    0x0000000000019fce       0x61 /usr/lib/gcc/arm-none-eabi/6.3.1/thumb/v7-m/libgcc.a(_aeabi_uldivmod.o)
 .debug_line    0x000000000001a02f      0x244 /usr/lib/gcc/arm-none-eabi/6.3.1/thumb/v7-m/libgcc.a(_udivmoddi4.o)

.debug_str      0x0000000000000000     0xcbc5
 .debug_str     0x0000000000000000      0x517 hello-world.co
                                        0x631 (size before relaxing)
 .debug_str     0x0000000000000517      0x7d2 obj_evb1000/contiki-main.o
                                        0xef7 (size before relaxing)
 .debug_str     0x0000000000000ce9      0x3fc obj_evb1000/board.o
                                        0x5d8 (size before relaxing)
 .debug_str     0x00000000000010e5       0x75 obj_evb1000/leds-arch.o
                                        0x3d5 (size before relaxing)
 .debug_str     0x000000000000115a      0x20f obj_evb1000/lcd.o
                                        0x996 (size before relaxing)
 .debug_str     0x0000000000001369      0x662 obj_evb1000/stm32f10x_it.o
                                        0x9c4 (size before relaxing)
 .debug_str     0x00000000000019cb      0x19f obj_evb1000/syscalls.o
                                        0x88e (size before relaxing)
 .debug_str     0x0000000000001b6a      0x75f obj_evb1000/dw1000-arch.o
                                       0x108f (size before relaxing)
 .debug_str     0x00000000000022c9      0xcbf obj_evb1000/deca_device.o
                                       0x1449 (size before relaxing)
 .debug_str     0x0000000000002f88       0x2f obj_evb1000/deca_params_init.o
                                        0x629 (size before relaxing)
 .debug_str     0x0000000000002fb7       0xc8 obj_evb1000/deca_range_tables.o
                                        0x6cd (size before relaxing)
 .debug_str     0x000000000000307f      0x339 obj_evb1000/dw1000.o
                                       0x11ef (size before relaxing)
 .debug_str     0x00000000000033b8      0x4b2 obj_evb1000/dw1000-ranging.o
                                       0x129f (size before relaxing)
 .debug_str     0x000000000000386a      0x19a obj_evb1000/system_stm32f10x.o
                                        0x36d (size before relaxing)
 .debug_str     0x0000000000003a04      0x158 obj_evb1000/core_cm3.o
                                        0x31a (size before relaxing)
 .debug_str     0x0000000000003b5c      0x108 obj_evb1000/misc.o
                                        0x40e (size before relaxing)
 .debug_str     0x0000000000003c64      0x21d obj_evb1000/stm32f10x_gpio.o
                                        0x586 (size before relaxing)
 .debug_str     0x0000000000003e81      0x304 obj_evb1000/stm32f10x_rcc.o
                                        0x7b8 (size before relaxing)
 .debug_str     0x0000000000004185       0xcd obj_evb1000/stm32f10x_exti.o
                                        0x39f (size before relaxing)
 .debug_str     0x0000000000004252      0x163 obj_evb1000/stm32f10x_rtc.o
                                        0x3f8 (size before relaxing)
 .debug_str     0x00000000000043b5      0x393 obj_evb1000/stm32f10x_bkp.o
                                        0x61e (size before relaxing)
 .debug_str     0x0000000000004748      0x3e4 obj_evb1000/stm32f10x_flash.o
                                        0x63e (size before relaxing)
 .debug_str     0x0000000000004b2c       0xe6 obj_evb1000/stm32f10x_iwdg.o
                                        0x2b2 (size before relaxing)
 .debug_str     0x0000000000004c12      0x112 obj_evb1000/stm32f10x_pwr.o
                                        0x37f (size before relaxing)
 .debug_str     0x0000000000004d24      0x264 obj_evb1000/stm32f10x_spi.o
                                        0x6e0 (size before relaxing)
 .debug_str     0x0000000000004f88      0x35b obj_evb1000/usbd_core.o
                                        0xd06 (size before relaxing)
 .debug_str     0x00000000000052e3       0x99 obj_evb1000/usbd_ioreq.o
                                        0xa53 (size before relaxing)
 .debug_str     0x000000000000537c      0x1b4 obj_evb1000/usbd_req.o
                                        0xc4c (size before relaxing)
 .debug_str     0x0000000000005530      0x1f8 obj_evb1000/usbd_cdc_core.o
                                        0xc42 (size before relaxing)
 .debug_str     0x0000000000005728       0x89 obj_evb1000/deca_usb.o
                                        0xbcd (size before relaxing)
 .debug_str     0x00000000000057b1       0xdd obj_evb1000/deca_usb_bsp_evk1000.o
                                        0xfe1 (size before relaxing)
 .debug_str     0x000000000000588e       0xf6 obj_evb1000/usbd_desc.o
                                        0x3ed (size before relaxing)
 .debug_str     0x0000000000005984       0xc5 obj_evb1000/usbd_usr.o
                                        0x302 (size before relaxing)
 .debug_str     0x0000000000005a49      0xae8 obj_evb1000/usb_core.o
                                       0x16ec (size before relaxing)
 .debug_str     0x0000000000006531      0x33d obj_evb1000/usb_dcd_int.o
                                       0x157e (size before relaxing)
 .debug_str     0x000000000000686e       0x98 obj_evb1000/usb_dcd.o
                                        0xcea (size before relaxing)
 .debug_str     0x0000000000006906       0xe2 obj_evb1000/clock.o
                                        0x7e9 (size before relaxing)
 .debug_str     0x00000000000069e8       0x48 obj_evb1000/watchdog.o
                                        0x275 (size before relaxing)
 .debug_str     0x0000000000006a30       0x8d obj_evb1000/rtimer-arch.o
                                        0x896 (size before relaxing)
 .debug_str     0x0000000000006abd       0x32 obj_evb1000/spix.o
                                        0x47b (size before relaxing)
 .debug_str     0x0000000000006aef       0x37 contiki-evb1000.a(autostart.o)
                                        0x22c (size before relaxing)
 .debug_str     0x0000000000006b26      0x124 contiki-evb1000.a(ctimer.o)
                                        0x39e (size before relaxing)
 .debug_str     0x0000000000006c4a       0x4e contiki-evb1000.a(energest.o)
                                        0x1ab (size before relaxing)
 .debug_str     0x0000000000006c98       0xed contiki-evb1000.a(etimer.o)
                                        0x3cc (size before relaxing)
 .debug_str     0x0000000000006d85       0xe7 contiki-evb1000.a(process.o)
                                        0x6f4 (size before relaxing)
 .debug_str     0x0000000000006e6c       0x97 contiki-evb1000.a(rtimer.o)
                                        0x2e9 (size before relaxing)
 .debug_str     0x0000000000006f03       0x17 contiki-evb1000.a(timer.o)
                                        0x1e9 (size before relaxing)
 .debug_str     0x0000000000006f1a       0x97 contiki-evb1000.a(serial-line.o)
                                        0x718 (size before relaxing)
 .debug_str     0x0000000000006fb1       0x4e contiki-evb1000.a(leds.o)
                                        0x206 (size before relaxing)
 .debug_str     0x0000000000006fff       0x7f contiki-evb1000.a(list.o)
                                        0x189 (size before relaxing)
 .debug_str     0x000000000000707e       0x37 contiki-evb1000.a(ringbuf.o)
                                        0x1e7 (size before relaxing)
 .debug_str     0x00000000000070b5      0x8e4 contiki-evb1000.a(uip6.o)
                                       0x14f9 (size before relaxing)
 .debug_str     0x0000000000007999      0x282 contiki-evb1000.a(uip-nd6.o)
                                        0xf95 (size before relaxing)
 .debug_str     0x0000000000007c1b      0x2e6 contiki-evb1000.a(tcpip.o)
                                       0x1514 (size before relaxing)
 .debug_str     0x0000000000007f01      0x792 contiki-evb1000.a(rpl-dag.o)
                                       0x1995 (size before relaxing)
 .debug_str     0x0000000000008693      0x232 contiki-evb1000.a(rpl-timers.o)
                                       0x1424 (size before relaxing)
 .debug_str     0x00000000000088c5      0x2c2 contiki-evb1000.a(rpl-ext-header.)
                                       0x1510 (size before relaxing)
 .debug_str     0x0000000000008b87       0xfb contiki-evb1000.a(rpl.o)
                                       0x138f (size before relaxing)
 .debug_str     0x0000000000008c82       0x66 contiki-evb1000.a(rpl-mrhof.o)
                                       0x1111 (size before relaxing)
 .debug_str     0x0000000000008ce8      0x23b contiki-evb1000.a(queuebuf.o)
                                       0x10e4 (size before relaxing)
 .debug_str     0x0000000000008f23      0x234 contiki-evb1000.a(nbr-table.o)
                                        0xef0 (size before relaxing)
 .debug_str     0x0000000000009157      0x145 contiki-evb1000.a(packetbuf.o)
                                       0x10d0 (size before relaxing)
 .debug_str     0x000000000000929c       0x1a contiki-evb1000.a(netstack.o)
                                        0xa6a (size before relaxing)
 .debug_str     0x00000000000092b6       0x3d contiki-evb1000.a(linkaddr.o)
                                        0x5bd (size before relaxing)
 .debug_str     0x00000000000092f3      0x116 contiki-evb1000.a(link-stats.o)
                                        0xfc2 (size before relaxing)
 .debug_str     0x0000000000009409      0x2b0 contiki-evb1000.a(nullrdc.o)
                                       0x109c (size before relaxing)
 .debug_str     0x00000000000096b9       0x1f contiki-evb1000.a(nullsec.o)
                                        0xc49 (size before relaxing)
 .debug_str     0x00000000000096d8       0x24 contiki-evb1000.a(memb.o)
                                        0x62d (size before relaxing)
 .debug_str     0x00000000000096fc       0x2a contiki-evb1000.a(random.o)
                                        0x577 (size before relaxing)
 .debug_str     0x0000000000009726      0x192 contiki-evb1000.a(uip-icmp6.o)
                                        0xf9f (size before relaxing)
 .debug_str     0x00000000000098b8      0x223 contiki-evb1000.a(uip-ds6.o)
                                        0xff6 (size before relaxing)
 .debug_str     0x0000000000009adb      0x2bf contiki-evb1000.a(uip-ds6-route.o)
                                       0x13eb (size before relaxing)
 .debug_str     0x0000000000009d9a       0xa5 contiki-evb1000.a(uip-ds6-nbr.o)
                                       0x11b7 (size before relaxing)
 .debug_str     0x0000000000009e3f      0x3cc contiki-evb1000.a(sicslowpan.o)
                                       0x15a6 (size before relaxing)
 .debug_str     0x000000000000a20b       0x30 contiki-evb1000.a(uip-debug.o)
                                        0x897 (size before relaxing)
 .debug_str     0x000000000000a23b      0x17e contiki-evb1000.a(rpl-icmp6.o)
                                       0x1826 (size before relaxing)
 .debug_str     0x000000000000a3b9       0xac contiki-evb1000.a(rpl-nbr-policy.)
                                       0x1381 (size before relaxing)
 .debug_str     0x000000000000a465       0x32 contiki-evb1000.a(mac-sequence.o)
                                        0xf33 (size before relaxing)
 .debug_str     0x000000000000a497      0x1fa contiki-evb1000.a(csma.o)
                                       0x106e (size before relaxing)
 .debug_str     0x000000000000a691      0x1db contiki-evb1000.a(frame802154.o)
                                        0xc5a (size before relaxing)
 .debug_str     0x000000000000a86c       0x20 contiki-evb1000.a(mac.o)
                                        0x1f5 (size before relaxing)
 .debug_str     0x000000000000a88c       0x4d contiki-evb1000.a(framer-802154.o)
                                        0xdd7 (size before relaxing)
 .debug_str     0x000000000000a8d9       0x54 contiki-evb1000.a(stimer.o)
                                        0x1dc (size before relaxing)
 .debug_str     0x000000000000a92d      0xb9e /usr/lib/gcc/arm-none-eabi/6.3.1/thumb/v7-m/libgcc.a(_fixdfdi.o)
                                        0xc7e (size before relaxing)
 .debug_str     0x000000000000b4cb       0x10 /usr/lib/gcc/arm-none-eabi/6.3.1/thumb/v7-m/libgcc.a(_fixunsdfdi.o)
                                        0xc6f (size before relaxing)
 .debug_str     0x000000000000b4db       0xec /usr/lib/gcc/arm-none-eabi/6.3.1/../../../arm-none-eabi/lib/libc.a(lib_a-atexit.o)
                                        0x191 (size before relaxing)
 .debug_str     0x000000000000b5c7       0xad /usr/lib/gcc/arm-none-eabi/6.3.1/../../../arm-none-eabi/lib/libc.a(lib_a-fini.o)
                                        0x189 (size before relaxing)
 .debug_str     0x000000000000b674       0x87 /usr/lib/gcc/arm-none-eabi/6.3.1/../../../arm-none-eabi/lib/libc.a(lib_a-impure.o)
                                        0x525 (size before relaxing)
 .debug_str     0x000000000000b6fb       0x87 /usr/lib/gcc/arm-none-eabi/6.3.1/../../../arm-none-eabi/lib/libc.a(lib_a-init.o)
                                        0x1b3 (size before relaxing)
 .debug_str     0x000000000000b782       0x7d /usr/lib/gcc/arm-none-eabi/6.3.1/../../../arm-none-eabi/lib/libc.a(lib_a-memcmp.o)
                                        0x154 (size before relaxing)
 .debug_str     0x000000000000b7ff       0xb6 /usr/lib/gcc/arm-none-eabi/6.3.1/../../../arm-none-eabi/lib/libc.a(lib_a-memcpy-stub.o)
                                        0x18d (size before relaxing)
 .debug_str     0x000000000000b8b5       0x3e /usr/lib/gcc/arm-none-eabi/6.3.1/../../../arm-none-eabi/lib/libc.a(lib_a-memmove.o)
                                        0x187 (size before relaxing)
 .debug_str     0x000000000000b8f3       0x38 /usr/lib/gcc/arm-none-eabi/6.3.1/../../../arm-none-eabi/lib/libc.a(lib_a-memset.o)
                                        0x168 (size before relaxing)
 .debug_str     0x000000000000b92b       0xaf /usr/lib/gcc/arm-none-eabi/6.3.1/../../../arm-none-eabi/lib/libc.a(lib_a-printf.o)
                                        0x549 (size before relaxing)
 .debug_str     0x000000000000b9da       0x3e /usr/lib/gcc/arm-none-eabi/6.3.1/../../../arm-none-eabi/lib/libc.a(lib_a-putchar.o)
                                        0x528 (size before relaxing)
 .debug_str     0x000000000000ba18       0x91 /usr/lib/gcc/arm-none-eabi/6.3.1/../../../arm-none-eabi/lib/libc.a(lib_a-puts.o)
                                        0x58c (size before relaxing)
 .debug_str     0x000000000000baa9       0x29 /usr/lib/gcc/arm-none-eabi/6.3.1/../../../arm-none-eabi/lib/libc.a(lib_a-rand.o)
                                        0x51c (size before relaxing)
 .debug_str     0x000000000000bad2       0x38 /usr/lib/gcc/arm-none-eabi/6.3.1/../../../arm-none-eabi/lib/libc.a(lib_a-strlen-stub.o)
                                        0x166 (size before relaxing)
 .debug_str     0x000000000000bb0a      0x1b2 /usr/lib/gcc/arm-none-eabi/6.3.1/../../../arm-none-eabi/lib/libc.a(lib_a-vfprintf.o)
                                        0x78b (size before relaxing)
 .debug_str     0x000000000000bcbc       0x3f /usr/lib/gcc/arm-none-eabi/6.3.1/../../../arm-none-eabi/lib/libc.a(lib_a-wsetup.o)
                                        0x544 (size before relaxing)
 .debug_str     0x000000000000bcfb       0x2d /usr/lib/gcc/arm-none-eabi/6.3.1/../../../arm-none-eabi/lib/libc.a(lib_a-__atexit.o)
                                        0x566 (size before relaxing)
 .debug_str     0x000000000000bd28       0x71 /usr/lib/gcc/arm-none-eabi/6.3.1/../../../arm-none-eabi/lib/libc.a(lib_a-__call_atexit.o)
                                        0x585 (size before relaxing)
 .debug_str     0x000000000000bd99      0x147 /usr/lib/gcc/arm-none-eabi/6.3.1/../../../arm-none-eabi/lib/libc.a(lib_a-dtoa.o)
                                        0x664 (size before relaxing)
 .debug_str     0x000000000000bee0       0x5a /usr/lib/gcc/arm-none-eabi/6.3.1/../../../arm-none-eabi/lib/libc.a(lib_a-fflush.o)
                                        0x585 (size before relaxing)
 .debug_str     0x000000000000bf3a      0x107 /usr/lib/gcc/arm-none-eabi/6.3.1/../../../arm-none-eabi/lib/libc.a(lib_a-findfp.o)
                                        0x63b (size before relaxing)
 .debug_str     0x000000000000c041      0x169 /usr/lib/gcc/arm-none-eabi/6.3.1/../../../arm-none-eabi/lib/libc.a(lib_a-freer.o)
                                        0x674 (size before relaxing)
 .debug_str     0x000000000000c1aa       0x54 /usr/lib/gcc/arm-none-eabi/6.3.1/../../../arm-none-eabi/lib/libc.a(lib_a-fvwrite.o)
                                        0x5b7 (size before relaxing)
 .debug_str     0x000000000000c1fe       0x38 /usr/lib/gcc/arm-none-eabi/6.3.1/../../../arm-none-eabi/lib/libc.a(lib_a-fwalk.o)
                                        0x52a (size before relaxing)
 .debug_str     0x000000000000c236      0x251 /usr/lib/gcc/arm-none-eabi/6.3.1/../../../arm-none-eabi/lib/libc.a(lib_a-locale.o)
                                        0x782 (size before relaxing)
 .debug_str     0x000000000000c487       0x63 /usr/lib/gcc/arm-none-eabi/6.3.1/../../../arm-none-eabi/lib/libc.a(lib_a-makebuf.o)
                                        0x69f (size before relaxing)
 .debug_str     0x000000000000c4ea       0xe5 /usr/lib/gcc/arm-none-eabi/6.3.1/../../../arm-none-eabi/lib/libc.a(lib_a-mallocr.o)
                                        0x72a (size before relaxing)
 .debug_str     0x000000000000c5cf       0x3d /usr/lib/gcc/arm-none-eabi/6.3.1/../../../arm-none-eabi/lib/libc.a(lib_a-memchr-stub.o)
                                        0x180 (size before relaxing)
 .debug_str     0x000000000000c60c       0x3f /usr/lib/gcc/arm-none-eabi/6.3.1/../../../arm-none-eabi/lib/libc.a(lib_a-mlock.o)
                                        0x520 (size before relaxing)
 .debug_str     0x000000000000c64b       0x95 /usr/lib/gcc/arm-none-eabi/6.3.1/../../../arm-none-eabi/lib/libc.a(lib_a-mprec.o)
                                        0x61e (size before relaxing)
 .debug_str     0x000000000000c6e0       0x41 /usr/lib/gcc/arm-none-eabi/6.3.1/../../../arm-none-eabi/lib/libc.a(lib_a-putc.o)
                                        0x554 (size before relaxing)
 .debug_str     0x000000000000c721       0x49 /usr/lib/gcc/arm-none-eabi/6.3.1/../../../arm-none-eabi/lib/libc.a(lib_a-reallocr.o)
                                        0x606 (size before relaxing)
 .debug_str     0x000000000000c76a       0x33 /usr/lib/gcc/arm-none-eabi/6.3.1/../../../arm-none-eabi/lib/libc.a(lib_a-sbrkr.o)
                                        0x51c (size before relaxing)
 .debug_str     0x000000000000c79d       0x89 /usr/lib/gcc/arm-none-eabi/6.3.1/../../../arm-none-eabi/lib/libc.a(lib_a-stdio.o)
                                        0x579 (size before relaxing)
 .debug_str     0x000000000000c826       0x29 /usr/lib/gcc/arm-none-eabi/6.3.1/../../../arm-none-eabi/lib/libc.a(lib_a-vfiprintf.o)
                                        0x6ed (size before relaxing)
 .debug_str     0x000000000000c84f       0x30 /usr/lib/gcc/arm-none-eabi/6.3.1/../../../arm-none-eabi/lib/libc.a(lib_a-wbuf.o)
                                        0x549 (size before relaxing)
 .debug_str     0x000000000000c87f       0x2a /usr/lib/gcc/arm-none-eabi/6.3.1/../../../arm-none-eabi/lib/libc.a(lib_a-writer.o)
                                        0x519 (size before relaxing)
 .debug_str     0x000000000000c8a9        0xf /usr/lib/gcc/arm-none-eabi/6.3.1/../../../arm-none-eabi/lib/libc.a(lib_a-callocr.o)
                                        0x55e (size before relaxing)
 .debug_str     0x000000000000c8b8       0x2a /usr/lib/gcc/arm-none-eabi/6.3.1/../../../arm-none-eabi/lib/libc.a(lib_a-closer.o)
                                        0x509 (size before relaxing)
 .debug_str     0x000000000000c8e2       0x3b /usr/lib/gcc/arm-none-eabi/6.3.1/../../../arm-none-eabi/lib/libc.a(lib_a-fclose.o)
                                        0x572 (size before relaxing)
 .debug_str     0x000000000000c91d       0x3e /usr/lib/gcc/arm-none-eabi/6.3.1/../../../arm-none-eabi/lib/libc.a(lib_a-fputwc.o)
                                        0x58a (size before relaxing)
 .debug_str     0x000000000000c95b       0x30 /usr/lib/gcc/arm-none-eabi/6.3.1/../../../arm-none-eabi/lib/libc.a(lib_a-fstatr.o)
                                        0x654 (size before relaxing)
 .debug_str     0x000000000000c98b       0x2b /usr/lib/gcc/arm-none-eabi/6.3.1/../../../arm-none-eabi/lib/libc.a(lib_a-isattyr.o)
                                        0x513 (size before relaxing)
 .debug_str     0x000000000000c9b6       0x2a /usr/lib/gcc/arm-none-eabi/6.3.1/../../../arm-none-eabi/lib/libc.a(lib_a-lseekr.o)
                                        0x517 (size before relaxing)
 .debug_str     0x000000000000c9e0       0x29 /usr/lib/gcc/arm-none-eabi/6.3.1/../../../arm-none-eabi/lib/libc.a(lib_a-readr.o)
                                        0x517 (size before relaxing)
 .debug_str     0x000000000000ca09       0x55 /usr/lib/gcc/arm-none-eabi/6.3.1/../../../arm-none-eabi/lib/libc.a(lib_a-reent.o)
                                        0x544 (size before relaxing)
 .debug_str     0x000000000000ca5e       0x3d /usr/lib/gcc/arm-none-eabi/6.3.1/../../../arm-none-eabi/lib/libc.a(lib_a-wcrtomb.o)
                                        0x55c (size before relaxing)
 .debug_str     0x000000000000ca9b       0x4d /usr/lib/gcc/arm-none-eabi/6.3.1/../../../arm-none-eabi/lib/libc.a(lib_a-wctomb_r.o)
                                        0x565 (size before relaxing)
 .debug_str     0x000000000000cae8       0xdd /usr/lib/gcc/arm-none-eabi/6.3.1/thumb/v7-m/libgcc.a(_udivmoddi4.o)
                                        0xcbc (size before relaxing)

.debug_frame    0x0000000000000000     0x7778
 .debug_frame   0x0000000000000000       0x28 hello-world.co
 .debug_frame   0x0000000000000028       0x30 obj_evb1000/contiki-main.o
 .debug_frame   0x0000000000000058       0x7c obj_evb1000/board.o
 .debug_frame   0x00000000000000d4       0x64 obj_evb1000/leds-arch.o
 .debug_frame   0x0000000000000138       0xac obj_evb1000/lcd.o
 .debug_frame   0x00000000000001e4       0x3c obj_evb1000/stm32f10x_it.o
 .debug_frame   0x0000000000000220       0x94 obj_evb1000/syscalls.o
 .debug_frame   0x00000000000002b4      0x12c obj_evb1000/dw1000-arch.o
 .debug_frame   0x00000000000003e0      0xc4c obj_evb1000/deca_device.o
 .debug_frame   0x000000000000102c       0x2c obj_evb1000/deca_range_tables.o
 .debug_frame   0x0000000000001058      0x220 obj_evb1000/dw1000.o
 .debug_frame   0x0000000000001278      0x124 obj_evb1000/dw1000-ranging.o
 .debug_frame   0x000000000000139c       0x54 obj_evb1000/system_stm32f10x.o
 .debug_frame   0x00000000000013f0      0x170 obj_evb1000/core_cm3.o
 .debug_frame   0x0000000000001560       0x70 obj_evb1000/misc.o
 .debug_frame   0x00000000000015d0      0x1b0 obj_evb1000/stm32f10x_gpio.o
 .debug_frame   0x0000000000001780      0x2c4 obj_evb1000/stm32f10x_rcc.o
 .debug_frame   0x0000000000001a44       0xa8 obj_evb1000/stm32f10x_exti.o
 .debug_frame   0x0000000000001aec       0xf0 obj_evb1000/stm32f10x_rtc.o
 .debug_frame   0x0000000000001bdc       0xec obj_evb1000/stm32f10x_bkp.o
 .debug_frame   0x0000000000001cc8      0x250 obj_evb1000/stm32f10x_flash.o
 .debug_frame   0x0000000000001f18       0x70 obj_evb1000/stm32f10x_iwdg.o
 .debug_frame   0x0000000000001f88       0xb8 obj_evb1000/stm32f10x_pwr.o
 .debug_frame   0x0000000000002040      0x1d0 obj_evb1000/stm32f10x_spi.o
 .debug_frame   0x0000000000002210      0x19c obj_evb1000/usbd_core.o
 .debug_frame   0x00000000000023ac       0xb8 obj_evb1000/usbd_ioreq.o
 .debug_frame   0x0000000000002464       0xe4 obj_evb1000/usbd_req.o
 .debug_frame   0x0000000000002548       0xe0 obj_evb1000/usbd_cdc_core.o
 .debug_frame   0x0000000000002628       0xa0 obj_evb1000/deca_usb.o
 .debug_frame   0x00000000000026c8       0xac obj_evb1000/deca_usb_bsp_evk1000.o
 .debug_frame   0x0000000000002774       0xa8 obj_evb1000/usbd_desc.o
 .debug_frame   0x000000000000281c       0x80 obj_evb1000/usbd_usr.o
 .debug_frame   0x000000000000289c      0x34c obj_evb1000/usb_core.o
 .debug_frame   0x0000000000002be8       0x44 obj_evb1000/usb_dcd_int.o
 .debug_frame   0x0000000000002c2c      0x148 obj_evb1000/usb_dcd.o
 .debug_frame   0x0000000000002d74       0xa4 obj_evb1000/clock.o
 .debug_frame   0x0000000000002e18       0x80 obj_evb1000/watchdog.o
 .debug_frame   0x0000000000002e98       0x78 obj_evb1000/rtimer-arch.o
 .debug_frame   0x0000000000002f10       0x4c obj_evb1000/spix.o
 .debug_frame   0x0000000000002f5c       0x40 contiki-evb1000.a(autostart.o)
 .debug_frame   0x0000000000002f9c      0x140 contiki-evb1000.a(ctimer.o)
 .debug_frame   0x00000000000030dc       0x50 contiki-evb1000.a(energest.o)
 .debug_frame   0x000000000000312c      0x170 contiki-evb1000.a(etimer.o)
 .debug_frame   0x000000000000329c      0x168 contiki-evb1000.a(process.o)
 .debug_frame   0x0000000000003404       0x5c contiki-evb1000.a(rtimer.o)
 .debug_frame   0x0000000000003460       0x80 contiki-evb1000.a(timer.o)
 .debug_frame   0x00000000000034e0       0x68 contiki-evb1000.a(serial-line.o)
 .debug_frame   0x0000000000003548       0x9c contiki-evb1000.a(leds.o)
 .debug_frame   0x00000000000035e4      0x120 contiki-evb1000.a(list.o)
 .debug_frame   0x0000000000003704       0x7c contiki-evb1000.a(ringbuf.o)
 .debug_frame   0x0000000000003780      0x228 contiki-evb1000.a(uip6.o)
 .debug_frame   0x00000000000039a8       0x50 contiki-evb1000.a(uip-nd6.o)
 .debug_frame   0x00000000000039f8      0x1e0 contiki-evb1000.a(tcpip.o)
 .debug_frame   0x0000000000003bd8      0x5c8 contiki-evb1000.a(rpl-dag.o)
 .debug_frame   0x00000000000041a0      0x224 contiki-evb1000.a(rpl-timers.o)
 .debug_frame   0x00000000000043c4       0xd4 contiki-evb1000.a(rpl-ext-header.)
 .debug_frame   0x0000000000004498      0x134 contiki-evb1000.a(rpl.o)
 .debug_frame   0x00000000000045cc      0x100 contiki-evb1000.a(rpl-mrhof.o)
 .debug_frame   0x00000000000046cc      0x110 contiki-evb1000.a(queuebuf.o)
 .debug_frame   0x00000000000047dc      0x184 contiki-evb1000.a(nbr-table.o)
 .debug_frame   0x0000000000004960      0x1fc contiki-evb1000.a(packetbuf.o)
 .debug_frame   0x0000000000004b5c       0x2c contiki-evb1000.a(netstack.o)
 .debug_frame   0x0000000000004b88       0x48 contiki-evb1000.a(linkaddr.o)
 .debug_frame   0x0000000000004bd0       0xb8 contiki-evb1000.a(link-stats.o)
 .debug_frame   0x0000000000004c88       0xec contiki-evb1000.a(nullrdc.o)
 .debug_frame   0x0000000000004d74       0x54 contiki-evb1000.a(nullsec.o)
 .debug_frame   0x0000000000004dc8       0x98 contiki-evb1000.a(memb.o)
 .debug_frame   0x0000000000004e60       0x38 contiki-evb1000.a(random.o)
 .debug_frame   0x0000000000004e98      0x12c contiki-evb1000.a(uip-icmp6.o)
 .debug_frame   0x0000000000004fc4      0x2f8 contiki-evb1000.a(uip-ds6.o)
 .debug_frame   0x00000000000052bc      0x23c contiki-evb1000.a(uip-ds6-route.o)
 .debug_frame   0x00000000000054f8      0x124 contiki-evb1000.a(uip-ds6-nbr.o)
 .debug_frame   0x000000000000561c      0x1dc contiki-evb1000.a(sicslowpan.o)
 .debug_frame   0x00000000000057f8       0x44 contiki-evb1000.a(uip-debug.o)
 .debug_frame   0x000000000000583c      0x1d0 contiki-evb1000.a(rpl-icmp6.o)
 .debug_frame   0x0000000000005a0c       0xbc contiki-evb1000.a(rpl-nbr-policy.)
 .debug_frame   0x0000000000005ac8       0x5c contiki-evb1000.a(mac-sequence.o)
 .debug_frame   0x0000000000005b24      0x190 contiki-evb1000.a(csma.o)
 .debug_frame   0x0000000000005cb4      0x19c contiki-evb1000.a(frame802154.o)
 .debug_frame   0x0000000000005e50       0x2c contiki-evb1000.a(mac.o)
 .debug_frame   0x0000000000005e7c       0x8c contiki-evb1000.a(framer-802154.o)
 .debug_frame   0x0000000000005f08       0x98 contiki-evb1000.a(stimer.o)
 .debug_frame   0x0000000000005fa0       0xac /usr/lib/gcc/arm-none-eabi/6.3.1/thumb/v7-m/libgcc.a(_arm_addsubdf3.o)
 .debug_frame   0x000000000000604c       0x50 /usr/lib/gcc/arm-none-eabi/6.3.1/thumb/v7-m/libgcc.a(_arm_muldivdf3.o)
 .debug_frame   0x000000000000609c       0xc4 /usr/lib/gcc/arm-none-eabi/6.3.1/thumb/v7-m/libgcc.a(_arm_cmpdf2.o)
 .debug_frame   0x0000000000006160       0x24 /usr/lib/gcc/arm-none-eabi/6.3.1/thumb/v7-m/libgcc.a(_arm_fixdfsi.o)
 .debug_frame   0x0000000000006184       0x24 /usr/lib/gcc/arm-none-eabi/6.3.1/thumb/v7-m/libgcc.a(_arm_fixunsdfsi.o)
 .debug_frame   0x00000000000061a8       0x24 /usr/lib/gcc/arm-none-eabi/6.3.1/thumb/v7-m/libgcc.a(_arm_truncdfsf2.o)
 .debug_frame   0x00000000000061cc       0x4c /usr/lib/gcc/arm-none-eabi/6.3.1/thumb/v7-m/libgcc.a(_arm_addsubsf3.o)
 .debug_frame   0x0000000000006218       0x3c /usr/lib/gcc/arm-none-eabi/6.3.1/thumb/v7-m/libgcc.a(_fixdfdi.o)
 .debug_frame   0x0000000000006254       0x2c /usr/lib/gcc/arm-none-eabi/6.3.1/thumb/v7-m/libgcc.a(_fixunsdfdi.o)
 .debug_frame   0x0000000000006280       0x2c /usr/lib/gcc/arm-none-eabi/6.3.1/../../../arm-none-eabi/lib/libc.a(lib_a-atexit.o)
 .debug_frame   0x00000000000062ac       0x34 /usr/lib/gcc/arm-none-eabi/6.3.1/../../../arm-none-eabi/lib/libc.a(lib_a-fini.o)
 .debug_frame   0x00000000000062e0       0x34 /usr/lib/gcc/arm-none-eabi/6.3.1/../../../arm-none-eabi/lib/libc.a(lib_a-init.o)
 .debug_frame   0x0000000000006314       0x38 /usr/lib/gcc/arm-none-eabi/6.3.1/../../../arm-none-eabi/lib/libc.a(lib_a-memcmp.o)
 .debug_frame   0x000000000000634c       0x3c /usr/lib/gcc/arm-none-eabi/6.3.1/../../../arm-none-eabi/lib/libc.a(lib_a-memcpy-stub.o)
 .debug_frame   0x0000000000006388       0x40 /usr/lib/gcc/arm-none-eabi/6.3.1/../../../arm-none-eabi/lib/libc.a(lib_a-memmove.o)
 .debug_frame   0x00000000000063c8       0x30 /usr/lib/gcc/arm-none-eabi/6.3.1/../../../arm-none-eabi/lib/libc.a(lib_a-memset.o)
 .debug_frame   0x00000000000063f8       0x74 /usr/lib/gcc/arm-none-eabi/6.3.1/../../../arm-none-eabi/lib/libc.a(lib_a-printf.o)
 .debug_frame   0x000000000000646c       0x48 /usr/lib/gcc/arm-none-eabi/6.3.1/../../../arm-none-eabi/lib/libc.a(lib_a-putchar.o)
 .debug_frame   0x00000000000064b4       0x4c /usr/lib/gcc/arm-none-eabi/6.3.1/../../../arm-none-eabi/lib/libc.a(lib_a-puts.o)
 .debug_frame   0x0000000000006500       0x3c /usr/lib/gcc/arm-none-eabi/6.3.1/../../../arm-none-eabi/lib/libc.a(lib_a-rand.o)
 .debug_frame   0x000000000000653c       0x20 /usr/lib/gcc/arm-none-eabi/6.3.1/../../../arm-none-eabi/lib/libc.a(lib_a-strlen-stub.o)
 .debug_frame   0x000000000000655c       0xa8 /usr/lib/gcc/arm-none-eabi/6.3.1/../../../arm-none-eabi/lib/libc.a(lib_a-vfprintf.o)
 .debug_frame   0x0000000000006604       0x40 /usr/lib/gcc/arm-none-eabi/6.3.1/../../../arm-none-eabi/lib/libc.a(lib_a-wsetup.o)
 .debug_frame   0x0000000000006644       0x3c /usr/lib/gcc/arm-none-eabi/6.3.1/../../../arm-none-eabi/lib/libc.a(lib_a-__atexit.o)
 .debug_frame   0x0000000000006680       0x68 /usr/lib/gcc/arm-none-eabi/6.3.1/../../../arm-none-eabi/lib/libc.a(lib_a-__call_atexit.o)
 .debug_frame   0x00000000000066e8       0xac /usr/lib/gcc/arm-none-eabi/6.3.1/../../../arm-none-eabi/lib/libc.a(lib_a-dtoa.o)
 .debug_frame   0x0000000000006794       0xa4 /usr/lib/gcc/arm-none-eabi/6.3.1/../../../arm-none-eabi/lib/libc.a(lib_a-fflush.o)
 .debug_frame   0x0000000000006838      0x174 /usr/lib/gcc/arm-none-eabi/6.3.1/../../../arm-none-eabi/lib/libc.a(lib_a-findfp.o)
 .debug_frame   0x00000000000069ac       0x78 /usr/lib/gcc/arm-none-eabi/6.3.1/../../../arm-none-eabi/lib/libc.a(lib_a-freer.o)
 .debug_frame   0x0000000000006a24       0x80 /usr/lib/gcc/arm-none-eabi/6.3.1/../../../arm-none-eabi/lib/libc.a(lib_a-fvwrite.o)
 .debug_frame   0x0000000000006aa4       0x80 /usr/lib/gcc/arm-none-eabi/6.3.1/../../../arm-none-eabi/lib/libc.a(lib_a-fwalk.o)
 .debug_frame   0x0000000000006b24       0xa4 /usr/lib/gcc/arm-none-eabi/6.3.1/../../../arm-none-eabi/lib/libc.a(lib_a-locale.o)
 .debug_frame   0x0000000000006bc8       0x74 /usr/lib/gcc/arm-none-eabi/6.3.1/../../../arm-none-eabi/lib/libc.a(lib_a-makebuf.o)
 .debug_frame   0x0000000000006c3c       0x7c /usr/lib/gcc/arm-none-eabi/6.3.1/../../../arm-none-eabi/lib/libc.a(lib_a-mallocr.o)
 .debug_frame   0x0000000000006cb8       0x34 /usr/lib/gcc/arm-none-eabi/6.3.1/../../../arm-none-eabi/lib/libc.a(lib_a-memchr-stub.o)
 .debug_frame   0x0000000000006cec       0x30 /usr/lib/gcc/arm-none-eabi/6.3.1/../../../arm-none-eabi/lib/libc.a(lib_a-mlock.o)
 .debug_frame   0x0000000000006d1c      0x2ec /usr/lib/gcc/arm-none-eabi/6.3.1/../../../arm-none-eabi/lib/libc.a(lib_a-mprec.o)
 .debug_frame   0x0000000000007008       0x68 /usr/lib/gcc/arm-none-eabi/6.3.1/../../../arm-none-eabi/lib/libc.a(lib_a-putc.o)
 .debug_frame   0x0000000000007070       0x70 /usr/lib/gcc/arm-none-eabi/6.3.1/../../../arm-none-eabi/lib/libc.a(lib_a-reallocr.o)
 .debug_frame   0x00000000000070e0       0x3c /usr/lib/gcc/arm-none-eabi/6.3.1/../../../arm-none-eabi/lib/libc.a(lib_a-sbrkr.o)
 .debug_frame   0x000000000000711c       0x9c /usr/lib/gcc/arm-none-eabi/6.3.1/../../../arm-none-eabi/lib/libc.a(lib_a-stdio.o)
 .debug_frame   0x00000000000071b8       0x40 /usr/lib/gcc/arm-none-eabi/6.3.1/../../../arm-none-eabi/lib/libc.a(lib_a-strcmp.o)
 .debug_frame   0x00000000000071f8       0xec /usr/lib/gcc/arm-none-eabi/6.3.1/../../../arm-none-eabi/lib/libc.a(lib_a-vfiprintf.o)
 .debug_frame   0x00000000000072e4       0x4c /usr/lib/gcc/arm-none-eabi/6.3.1/../../../arm-none-eabi/lib/libc.a(lib_a-wbuf.o)
 .debug_frame   0x0000000000007330       0x34 /usr/lib/gcc/arm-none-eabi/6.3.1/../../../arm-none-eabi/lib/libc.a(lib_a-writer.o)
 .debug_frame   0x0000000000007364       0x34 /usr/lib/gcc/arm-none-eabi/6.3.1/../../../arm-none-eabi/lib/libc.a(lib_a-callocr.o)
 .debug_frame   0x0000000000007398       0x34 /usr/lib/gcc/arm-none-eabi/6.3.1/../../../arm-none-eabi/lib/libc.a(lib_a-closer.o)
 .debug_frame   0x00000000000073cc       0x58 /usr/lib/gcc/arm-none-eabi/6.3.1/../../../arm-none-eabi/lib/libc.a(lib_a-fclose.o)
 .debug_frame   0x0000000000007424       0x98 /usr/lib/gcc/arm-none-eabi/6.3.1/../../../arm-none-eabi/lib/libc.a(lib_a-fputwc.o)
 .debug_frame   0x00000000000074bc       0x34 /usr/lib/gcc/arm-none-eabi/6.3.1/../../../arm-none-eabi/lib/libc.a(lib_a-fstatr.o)
 .debug_frame   0x00000000000074f0       0x34 /usr/lib/gcc/arm-none-eabi/6.3.1/../../../arm-none-eabi/lib/libc.a(lib_a-isattyr.o)
 .debug_frame   0x0000000000007524       0x34 /usr/lib/gcc/arm-none-eabi/6.3.1/../../../arm-none-eabi/lib/libc.a(lib_a-lseekr.o)
 .debug_frame   0x0000000000007558       0x34 /usr/lib/gcc/arm-none-eabi/6.3.1/../../../arm-none-eabi/lib/libc.a(lib_a-readr.o)
 .debug_frame   0x000000000000758c       0x64 /usr/lib/gcc/arm-none-eabi/6.3.1/../../../arm-none-eabi/lib/libc.a(lib_a-reent.o)
 .debug_frame   0x00000000000075f0       0x78 /usr/lib/gcc/arm-none-eabi/6.3.1/../../../arm-none-eabi/lib/libc.a(lib_a-wcrtomb.o)
 .debug_frame   0x0000000000007668       0x50 /usr/lib/gcc/arm-none-eabi/6.3.1/../../../arm-none-eabi/lib/libc.a(lib_a-wctomb_r.o)
 .debug_frame   0x00000000000076b8       0x20 /usr/lib/gcc/arm-none-eabi/6.3.1/thumb/v7-m/libgcc.a(_udivsi3.o)
 .debug_frame   0x00000000000076d8       0x20 /usr/lib/gcc/arm-none-eabi/6.3.1/thumb/v7-m/libgcc.a(_divsi3.o)
 .debug_frame   0x00000000000076f8       0x20 /usr/lib/gcc/arm-none-eabi/6.3.1/thumb/v7-m/libgcc.a(_arm_unorddf2.o)
 .debug_frame   0x0000000000007718       0x2c /usr/lib/gcc/arm-none-eabi/6.3.1/thumb/v7-m/libgcc.a(_aeabi_uldivmod.o)
 .debug_frame   0x0000000000007744       0x34 /usr/lib/gcc/arm-none-eabi/6.3.1/thumb/v7-m/libgcc.a(_udivmoddi4.o)
